	.text
	.attribute	4, 16
	.attribute	5, "rv64i2p1_m2p0_f2p2_d2p2_v1p0_zicsr2p0_zve32f1p0_zve32x1p0_zve64d1p0_zve64f1p0_zve64x1p0_zvl128b1p0_zvl32b1p0_zvl64b1p0"
	.file	"LLVMDialectModule"
	.section	.sdata,"aw",@progbits
	.p2align	3, 0x0                          # -- Begin function matmul_broadcast_mask_affineload_160
.LCPI0_0:
	.quad	7378697629483820647             # 0x6666666666666667
	.section	.rodata,"a",@progbits
	.p2align	8, 0x0
.LCPI0_1:
	.byte	64                              # 0x40
	.byte	65                              # 0x41
	.byte	66                              # 0x42
	.byte	67                              # 0x43
	.byte	68                              # 0x44
	.byte	69                              # 0x45
	.byte	70                              # 0x46
	.byte	71                              # 0x47
	.byte	72                              # 0x48
	.byte	73                              # 0x49
	.byte	74                              # 0x4a
	.byte	75                              # 0x4b
	.byte	76                              # 0x4c
	.byte	77                              # 0x4d
	.byte	78                              # 0x4e
	.byte	79                              # 0x4f
	.byte	80                              # 0x50
	.byte	81                              # 0x51
	.byte	82                              # 0x52
	.byte	83                              # 0x53
	.byte	84                              # 0x54
	.byte	85                              # 0x55
	.byte	86                              # 0x56
	.byte	87                              # 0x57
	.byte	88                              # 0x58
	.byte	89                              # 0x59
	.byte	90                              # 0x5a
	.byte	91                              # 0x5b
	.byte	92                              # 0x5c
	.byte	93                              # 0x5d
	.byte	94                              # 0x5e
	.byte	95                              # 0x5f
	.byte	96                              # 0x60
	.byte	97                              # 0x61
	.byte	98                              # 0x62
	.byte	99                              # 0x63
	.byte	100                             # 0x64
	.byte	101                             # 0x65
	.byte	102                             # 0x66
	.byte	103                             # 0x67
	.byte	104                             # 0x68
	.byte	105                             # 0x69
	.byte	106                             # 0x6a
	.byte	107                             # 0x6b
	.byte	108                             # 0x6c
	.byte	109                             # 0x6d
	.byte	110                             # 0x6e
	.byte	111                             # 0x6f
	.byte	112                             # 0x70
	.byte	113                             # 0x71
	.byte	114                             # 0x72
	.byte	115                             # 0x73
	.byte	116                             # 0x74
	.byte	117                             # 0x75
	.byte	118                             # 0x76
	.byte	119                             # 0x77
	.byte	120                             # 0x78
	.byte	121                             # 0x79
	.byte	122                             # 0x7a
	.byte	123                             # 0x7b
	.byte	124                             # 0x7c
	.byte	125                             # 0x7d
	.byte	126                             # 0x7e
	.byte	127                             # 0x7f
	.zero	192
.LCPI0_2:
	.word	128                             # 0x80
	.word	129                             # 0x81
	.word	130                             # 0x82
	.word	131                             # 0x83
	.word	132                             # 0x84
	.word	133                             # 0x85
	.word	134                             # 0x86
	.word	135                             # 0x87
	.word	136                             # 0x88
	.word	137                             # 0x89
	.word	138                             # 0x8a
	.word	139                             # 0x8b
	.word	140                             # 0x8c
	.word	141                             # 0x8d
	.word	142                             # 0x8e
	.word	143                             # 0x8f
	.word	144                             # 0x90
	.word	145                             # 0x91
	.word	146                             # 0x92
	.word	147                             # 0x93
	.word	148                             # 0x94
	.word	149                             # 0x95
	.word	150                             # 0x96
	.word	151                             # 0x97
	.word	152                             # 0x98
	.word	153                             # 0x99
	.word	154                             # 0x9a
	.word	155                             # 0x9b
	.word	156                             # 0x9c
	.word	157                             # 0x9d
	.word	158                             # 0x9e
	.word	159                             # 0x9f
	.zero	4
	.zero	4
	.zero	4
	.zero	4
	.zero	4
	.zero	4
	.zero	4
	.zero	4
	.zero	4
	.zero	4
	.zero	4
	.zero	4
	.zero	4
	.zero	4
	.zero	4
	.zero	4
	.zero	4
	.zero	4
	.zero	4
	.zero	4
	.zero	4
	.zero	4
	.zero	4
	.zero	4
	.zero	4
	.zero	4
	.zero	4
	.zero	4
	.zero	4
	.zero	4
	.zero	4
	.zero	4
	.section	.rodata.cst32,"aM",@progbits,32
	.p2align	5, 0x0
.LCPI0_3:
	.quad	-1                              # 0xffffffffffffffff
	.quad	-1                              # 0xffffffffffffffff
	.quad	4294967295                      # 0xffffffff
	.quad	0                               # 0x0
	.text
	.globl	matmul_broadcast_mask_affineload_160
	.p2align	2
	.type	matmul_broadcast_mask_affineload_160,@function
matmul_broadcast_mask_affineload_160:   # @matmul_broadcast_mask_affineload_160
	.cfi_startproc
# %bb.0:
	addi	sp, sp, -320
	.cfi_def_cfa_offset 320
	sd	ra, 312(sp)                     # 8-byte Folded Spill
	sd	s0, 304(sp)                     # 8-byte Folded Spill
	sd	s1, 296(sp)                     # 8-byte Folded Spill
	sd	s2, 288(sp)                     # 8-byte Folded Spill
	sd	s3, 280(sp)                     # 8-byte Folded Spill
	sd	s4, 272(sp)                     # 8-byte Folded Spill
	sd	s5, 264(sp)                     # 8-byte Folded Spill
	sd	s6, 256(sp)                     # 8-byte Folded Spill
	sd	s7, 248(sp)                     # 8-byte Folded Spill
	sd	s8, 240(sp)                     # 8-byte Folded Spill
	sd	s9, 232(sp)                     # 8-byte Folded Spill
	sd	s10, 224(sp)                    # 8-byte Folded Spill
	sd	s11, 216(sp)                    # 8-byte Folded Spill
	.cfi_offset ra, -8
	.cfi_offset s0, -16
	.cfi_offset s1, -24
	.cfi_offset s2, -32
	.cfi_offset s3, -40
	.cfi_offset s4, -48
	.cfi_offset s5, -56
	.cfi_offset s6, -64
	.cfi_offset s7, -72
	.cfi_offset s8, -80
	.cfi_offset s9, -88
	.cfi_offset s10, -96
	.cfi_offset s11, -104
	csrr	a0, vlenb
	li	a2, 1298
	mul	a0, a0, a2
	sub	sp, sp, a0
	.cfi_escape 0x0f, 0x0f, 0x72, 0x00, 0x11, 0xc0, 0x02, 0x22, 0x11, 0x92, 0x0a, 0x92, 0xa2, 0x38, 0x00, 0x1e, 0x22 # sp + 320 + 1298 * vlenb
	sd	a5, 40(sp)                      # 8-byte Folded Spill
	sd	a3, 48(sp)                      # 8-byte Folded Spill
	sd	a1, 168(sp)                     # 8-byte Folded Spill
	li	s5, 0
	csrr	a0, vlenb
	li	a1, 1298
	mul	a0, a0, a1
	add	a0, sp, a0
	ld	a0, 352(a0)
	sd	a0, 160(sp)                     # 8-byte Folded Spill
	csrr	a0, vlenb
	li	a1, 1298
	mul	a0, a0, a1
	add	a0, sp, a0
	ld	s7, 344(a0)
	csrr	a0, vlenb
	li	a1, 1298
	mul	a0, a0, a1
	add	a0, sp, a0
	ld	a0, 336(a0)
	sd	a0, 184(sp)                     # 8-byte Folded Spill
	csrr	a0, vlenb
	li	a1, 1298
	mul	a0, a0, a1
	add	a0, sp, a0
	ld	a0, 320(a0)
	sd	a0, 152(sp)                     # 8-byte Folded Spill
	csrr	a0, vlenb
	li	a1, 1298
	mul	a0, a0, a1
	add	a0, sp, a0
	ld	a0, 408(a0)
	sd	a0, 64(sp)                      # 8-byte Folded Spill
	csrr	a0, vlenb
	li	a1, 1298
	mul	a0, a0, a1
	add	a0, sp, a0
	ld	a0, 376(a0)
	sd	a0, 56(sp)                      # 8-byte Folded Spill
	addi	a0, s7, -1
	sd	a0, 24(sp)                      # 8-byte Folded Spill
	lui	a0, %hi(.LCPI0_0)
	ld	a0, %lo(.LCPI0_0)(a0)
	sd	a0, 32(sp)                      # 8-byte Folded Spill
	vsetivli	zero, 1, e32, mf2, ta, ma
	vmv.s.x	v8, zero
	addi	a0, sp, 208
	vs1r.v	v8, (a0)                        # Unknown-size Folded Spill
	lui	a0, %hi(.LCPI0_1)
	addi	a0, a0, %lo(.LCPI0_1)
	sd	a0, 128(sp)                     # 8-byte Folded Spill
	lui	a0, %hi(.LCPI0_2)
	addi	a0, a0, %lo(.LCPI0_2)
	sd	a0, 120(sp)                     # 8-byte Folded Spill
	lui	a0, %hi(.LCPI0_3)
	addi	a0, a0, %lo(.LCPI0_3)
	sd	a0, 112(sp)                     # 8-byte Folded Spill
	sd	s7, 72(sp)                      # 8-byte Folded Spill
	j	.LBB0_2
.LBB0_1:                                #   in Loop: Header=BB0_2 Depth=1
	addi	s5, s5, 1
.LBB0_2:                                # =>This Loop Header: Depth=1
                                        #     Child Loop BB0_12 Depth 2
                                        #       Child Loop BB0_18 Depth 3
                                        #       Child Loop BB0_15 Depth 3
	ld	s4, 48(sp)                      # 8-byte Folded Reload
	blt	s5, s4, .LBB0_3
	j	.LBB0_21
.LBB0_3:                                #   in Loop: Header=BB0_2 Depth=1
	mv	s6, s5
	blez	s7, .LBB0_5
# %bb.4:                                #   in Loop: Header=BB0_2 Depth=1
	ld	s4, 24(sp)                      # 8-byte Folded Reload
	j	.LBB0_6
.LBB0_5:                                #   in Loop: Header=BB0_2 Depth=1
	neg	s4, s7
.LBB0_6:                                #   in Loop: Header=BB0_2 Depth=1
	ld	s5, 32(sp)                      # 8-byte Folded Reload
	mulh	s4, s4, s5
	srli	s5, s4, 63
	srai	s4, s4, 6
	add	s4, s4, s5
	blez	s7, .LBB0_8
# %bb.7:                                #   in Loop: Header=BB0_2 Depth=1
	addi	s4, s4, 1
	sd	s4, 88(sp)                      # 8-byte Folded Spill
	j	.LBB0_9
.LBB0_8:                                #   in Loop: Header=BB0_2 Depth=1
	neg	a0, s4
	sd	a0, 88(sp)                      # 8-byte Folded Spill
.LBB0_9:                                #   in Loop: Header=BB0_2 Depth=1
	mv	s5, s6
	li	a1, 0
	ld	s4, 40(sp)                      # 8-byte Folded Reload
	mul	a0, s6, s4
	sd	a0, 176(sp)                     # 8-byte Folded Spill
	sd	s6, 80(sp)                      # 8-byte Folded Spill
	j	.LBB0_12
.LBB0_10:                               #   in Loop: Header=BB0_12 Depth=2
	vsetivli	zero, 2, e32, m8, tu, ma
	csrr	a0, vlenb
	li	a1, 41
	mul	a0, a0, a1
	add	a0, sp, a0
	addi	a0, a0, 208
	vl8r.v	v0, (a0)                        # Unknown-size Folded Reload
	vslideup.vi	v8, v0, 1
	vsetivli	zero, 3, e32, m8, tu, ma
	csrr	a0, vlenb
	li	a1, 49
	mul	a0, a0, a1
	add	a0, sp, a0
	addi	a0, a0, 208
	vl8r.v	v0, (a0)                        # Unknown-size Folded Reload
	vslideup.vi	v8, v0, 2
	vsetivli	zero, 4, e32, m8, tu, ma
	csrr	a0, vlenb
	li	a1, 57
	mul	a0, a0, a1
	add	a0, sp, a0
	addi	a0, a0, 208
	vl8r.v	v0, (a0)                        # Unknown-size Folded Reload
	vslideup.vi	v8, v0, 3
	vsetivli	zero, 5, e32, m8, tu, ma
	csrr	a0, vlenb
	slli	a1, a0, 6
	add	a0, a1, a0
	add	a0, sp, a0
	addi	a0, a0, 208
	vl8r.v	v0, (a0)                        # Unknown-size Folded Reload
	vslideup.vi	v8, v0, 4
	vsetivli	zero, 6, e32, m8, tu, ma
	csrr	a0, vlenb
	li	a1, 73
	mul	a0, a0, a1
	add	a0, sp, a0
	addi	a0, a0, 208
	vl8r.v	v0, (a0)                        # Unknown-size Folded Reload
	vslideup.vi	v8, v0, 5
	vsetivli	zero, 7, e32, m8, tu, ma
	csrr	a0, vlenb
	li	a1, 81
	mul	a0, a0, a1
	add	a0, sp, a0
	addi	a0, a0, 208
	vl8r.v	v0, (a0)                        # Unknown-size Folded Reload
	vslideup.vi	v8, v0, 6
	vsetivli	zero, 8, e32, m8, tu, ma
	csrr	a0, vlenb
	li	a1, 89
	mul	a0, a0, a1
	add	a0, sp, a0
	addi	a0, a0, 208
	vl8r.v	v0, (a0)                        # Unknown-size Folded Reload
	vslideup.vi	v8, v0, 7
	vsetivli	zero, 9, e32, m8, tu, ma
	csrr	a0, vlenb
	li	a1, 97
	mul	a0, a0, a1
	add	a0, sp, a0
	addi	a0, a0, 208
	vl8r.v	v0, (a0)                        # Unknown-size Folded Reload
	vslideup.vi	v8, v0, 8
	vsetivli	zero, 10, e32, m8, tu, ma
	csrr	a0, vlenb
	li	a1, 105
	mul	a0, a0, a1
	add	a0, sp, a0
	addi	a0, a0, 208
	vl8r.v	v0, (a0)                        # Unknown-size Folded Reload
	vslideup.vi	v8, v0, 9
	vsetivli	zero, 11, e32, m8, tu, ma
	csrr	a0, vlenb
	li	a1, 113
	mul	a0, a0, a1
	add	a0, sp, a0
	addi	a0, a0, 208
	vl8r.v	v0, (a0)                        # Unknown-size Folded Reload
	vslideup.vi	v8, v0, 10
	vsetivli	zero, 12, e32, m8, tu, ma
	csrr	a0, vlenb
	li	a1, 121
	mul	a0, a0, a1
	add	a0, sp, a0
	addi	a0, a0, 208
	vl8r.v	v0, (a0)                        # Unknown-size Folded Reload
	vslideup.vi	v8, v0, 11
	vsetivli	zero, 13, e32, m8, tu, ma
	csrr	a0, vlenb
	slli	a1, a0, 7
	add	a0, a1, a0
	add	a0, sp, a0
	addi	a0, a0, 208
	vl8r.v	v0, (a0)                        # Unknown-size Folded Reload
	vslideup.vi	v8, v0, 12
	vsetivli	zero, 14, e32, m8, tu, ma
	csrr	a0, vlenb
	li	a1, 137
	mul	a0, a0, a1
	add	a0, sp, a0
	addi	a0, a0, 208
	vl8r.v	v0, (a0)                        # Unknown-size Folded Reload
	vslideup.vi	v8, v0, 13
	vsetivli	zero, 15, e32, m8, tu, ma
	csrr	a0, vlenb
	li	a1, 145
	mul	a0, a0, a1
	add	a0, sp, a0
	addi	a0, a0, 208
	vl8r.v	v0, (a0)                        # Unknown-size Folded Reload
	vslideup.vi	v8, v0, 14
	vsetivli	zero, 16, e32, m8, tu, ma
	csrr	a0, vlenb
	li	a1, 153
	mul	a0, a0, a1
	add	a0, sp, a0
	addi	a0, a0, 208
	vl8r.v	v0, (a0)                        # Unknown-size Folded Reload
	vslideup.vi	v8, v0, 15
	vsetivli	zero, 17, e32, m8, tu, ma
	csrr	a0, vlenb
	li	a1, 161
	mul	a0, a0, a1
	add	a0, sp, a0
	addi	a0, a0, 208
	vl8r.v	v0, (a0)                        # Unknown-size Folded Reload
	vslideup.vi	v8, v0, 16
	vsetivli	zero, 18, e32, m8, tu, ma
	csrr	a0, vlenb
	li	a1, 169
	mul	a0, a0, a1
	add	a0, sp, a0
	addi	a0, a0, 208
	vl8r.v	v0, (a0)                        # Unknown-size Folded Reload
	vslideup.vi	v8, v0, 17
	vsetivli	zero, 19, e32, m8, tu, ma
	csrr	a0, vlenb
	li	a1, 177
	mul	a0, a0, a1
	add	a0, sp, a0
	addi	a0, a0, 208
	vl8r.v	v0, (a0)                        # Unknown-size Folded Reload
	vslideup.vi	v8, v0, 18
	vsetivli	zero, 20, e32, m8, tu, ma
	csrr	a0, vlenb
	li	a1, 185
	mul	a0, a0, a1
	add	a0, sp, a0
	addi	a0, a0, 208
	vl8r.v	v0, (a0)                        # Unknown-size Folded Reload
	vslideup.vi	v8, v0, 19
	vsetivli	zero, 21, e32, m8, tu, ma
	csrr	a0, vlenb
	li	a1, 193
	mul	a0, a0, a1
	add	a0, sp, a0
	addi	a0, a0, 208
	vl8r.v	v0, (a0)                        # Unknown-size Folded Reload
	vslideup.vi	v8, v0, 20
	vsetivli	zero, 22, e32, m8, tu, ma
	csrr	a0, vlenb
	li	a1, 201
	mul	a0, a0, a1
	add	a0, sp, a0
	addi	a0, a0, 208
	vl8r.v	v0, (a0)                        # Unknown-size Folded Reload
	vslideup.vi	v8, v0, 21
	vsetivli	zero, 23, e32, m8, tu, ma
	csrr	a0, vlenb
	li	a1, 209
	mul	a0, a0, a1
	add	a0, sp, a0
	addi	a0, a0, 208
	vl8r.v	v0, (a0)                        # Unknown-size Folded Reload
	vslideup.vi	v8, v0, 22
	vsetivli	zero, 24, e32, m8, tu, ma
	csrr	a0, vlenb
	li	a1, 217
	mul	a0, a0, a1
	add	a0, sp, a0
	addi	a0, a0, 208
	vl8r.v	v0, (a0)                        # Unknown-size Folded Reload
	vslideup.vi	v8, v0, 23
	vsetivli	zero, 25, e32, m8, tu, ma
	csrr	a0, vlenb
	li	a1, 225
	mul	a0, a0, a1
	add	a0, sp, a0
	addi	a0, a0, 208
	vl8r.v	v0, (a0)                        # Unknown-size Folded Reload
	vslideup.vi	v8, v0, 24
	vsetivli	zero, 26, e32, m8, tu, ma
	csrr	a0, vlenb
	li	a1, 233
	mul	a0, a0, a1
	add	a0, sp, a0
	addi	a0, a0, 208
	vl8r.v	v0, (a0)                        # Unknown-size Folded Reload
	vslideup.vi	v8, v0, 25
	vsetivli	zero, 27, e32, m8, tu, ma
	csrr	a0, vlenb
	li	a1, 241
	mul	a0, a0, a1
	add	a0, sp, a0
	addi	a0, a0, 208
	vl8r.v	v0, (a0)                        # Unknown-size Folded Reload
	vslideup.vi	v8, v0, 26
	vsetivli	zero, 28, e32, m8, tu, ma
	csrr	a0, vlenb
	li	a1, 249
	mul	a0, a0, a1
	add	a0, sp, a0
	addi	a0, a0, 208
	vl8r.v	v0, (a0)                        # Unknown-size Folded Reload
	vslideup.vi	v8, v0, 27
	vsetivli	zero, 29, e32, m8, tu, ma
	csrr	a0, vlenb
	slli	a1, a0, 8
	add	a0, a1, a0
	add	a0, sp, a0
	addi	a0, a0, 208
	vl8r.v	v0, (a0)                        # Unknown-size Folded Reload
	vslideup.vi	v8, v0, 28
	vsetivli	zero, 30, e32, m8, tu, ma
	csrr	a0, vlenb
	li	a1, 273
	mul	a0, a0, a1
	add	a0, sp, a0
	addi	a0, a0, 208
	vl8r.v	v0, (a0)                        # Unknown-size Folded Reload
	vslideup.vi	v8, v0, 29
	vsetivli	zero, 31, e32, m8, tu, ma
	csrr	a0, vlenb
	li	a1, 289
	mul	a0, a0, a1
	add	a0, sp, a0
	addi	a0, a0, 208
	vl8r.v	v0, (a0)                        # Unknown-size Folded Reload
	vslideup.vi	v8, v0, 30
	li	a0, 32
	vsetvli	zero, a0, e32, m8, tu, ma
	li	a0, 32
	csrr	a1, vlenb
	li	a2, 305
	mul	a1, a1, a2
	add	a1, sp, a1
	addi	a1, a1, 208
	vl8r.v	v0, (a1)                        # Unknown-size Folded Reload
	vslideup.vi	v8, v0, 31
	li	s6, 33
	vsetvli	zero, s6, e32, m8, tu, ma
	csrr	a1, vlenb
	li	a2, 321
	mul	a1, a1, a2
	add	a1, sp, a1
	addi	a1, a1, 208
	vl8r.v	v0, (a1)                        # Unknown-size Folded Reload
	vslideup.vx	v8, v0, a0
	li	s7, 34
	vsetvli	zero, s7, e32, m8, tu, ma
	csrr	a0, vlenb
	li	a1, 337
	mul	a0, a0, a1
	add	a0, sp, a0
	addi	a0, a0, 208
	vl8r.v	v0, (a0)                        # Unknown-size Folded Reload
	vslideup.vx	v8, v0, s6
	li	s9, 35
	vsetvli	zero, s9, e32, m8, tu, ma
	csrr	a0, vlenb
	li	a1, 353
	mul	a0, a0, a1
	add	a0, sp, a0
	addi	a0, a0, 208
	vl8r.v	v0, (a0)                        # Unknown-size Folded Reload
	vslideup.vx	v8, v0, s7
	li	t2, 36
	vsetvli	zero, t2, e32, m8, tu, ma
	sd	s7, 8(sp)
	csrr	a0, vlenb
	li	a1, 369
	mul	a0, a0, a1
	add	a0, sp, a0
	addi	a0, a0, 208
	vl8r.v	v0, (a0)                        # Unknown-size Folded Reload
	vslideup.vx	v8, v0, s9
	li	t3, 37
	vsetvli	zero, t3, e32, m8, tu, ma
	csrr	a0, vlenb
	li	a1, 385
	mul	a0, a0, a1
	add	a0, sp, a0
	addi	a0, a0, 208
	vl8r.v	v0, (a0)                        # Unknown-size Folded Reload
	vslideup.vx	v8, v0, t2
	li	t4, 38
	vsetvli	zero, t4, e32, m8, tu, ma
	csrr	a0, vlenb
	li	a1, 401
	mul	a0, a0, a1
	add	a0, sp, a0
	addi	a0, a0, 208
	vl8r.v	v0, (a0)                        # Unknown-size Folded Reload
	vslideup.vx	v8, v0, t3
	li	a5, 39
	vsetvli	zero, a5, e32, m8, tu, ma
	csrr	a0, vlenb
	li	a1, 417
	mul	a0, a0, a1
	add	a0, sp, a0
	addi	a0, a0, 208
	vl8r.v	v0, (a0)                        # Unknown-size Folded Reload
	vslideup.vx	v8, v0, t4
	li	a3, 40
	vsetvli	zero, a3, e32, m8, tu, ma
	csrr	a0, vlenb
	li	a1, 433
	mul	a0, a0, a1
	add	a0, sp, a0
	addi	a0, a0, 208
	vl8r.v	v0, (a0)                        # Unknown-size Folded Reload
	vslideup.vx	v8, v0, a5
	li	t0, 41
	vsetvli	zero, t0, e32, m8, tu, ma
	csrr	a0, vlenb
	li	a1, 449
	mul	a0, a0, a1
	add	a0, sp, a0
	addi	a0, a0, 208
	vl8r.v	v0, (a0)                        # Unknown-size Folded Reload
	vslideup.vx	v8, v0, a3
	li	t1, 42
	vsetvli	zero, t1, e32, m8, tu, ma
	csrr	a0, vlenb
	li	a1, 465
	mul	a0, a0, a1
	add	a0, sp, a0
	addi	a0, a0, 208
	vl8r.v	v0, (a0)                        # Unknown-size Folded Reload
	vslideup.vx	v8, v0, t0
	li	a4, 43
	vsetvli	zero, a4, e32, m8, tu, ma
	csrr	a0, vlenb
	li	a1, 481
	mul	a0, a0, a1
	add	a0, sp, a0
	addi	a0, a0, 208
	vl8r.v	v0, (a0)                        # Unknown-size Folded Reload
	vslideup.vx	v8, v0, t1
	li	a0, 44
	vsetvli	zero, a0, e32, m8, tu, ma
	li	a0, 44
	csrr	a1, vlenb
	li	a2, 497
	mul	a1, a1, a2
	add	a1, sp, a1
	addi	a1, a1, 208
	vl8r.v	v0, (a1)                        # Unknown-size Folded Reload
	vslideup.vx	v8, v0, a4
	li	s10, 45
	vsetvli	zero, s10, e32, m8, tu, ma
	csrr	a1, vlenb
	slli	a2, a1, 9
	add	a1, a2, a1
	add	a1, sp, a1
	addi	a1, a1, 208
	vl8r.v	v0, (a1)                        # Unknown-size Folded Reload
	vslideup.vx	v8, v0, a0
	li	s11, 46
	vsetvli	zero, s11, e32, m8, tu, ma
	csrr	a0, vlenb
	li	a1, 529
	mul	a0, a0, a1
	add	a0, sp, a0
	addi	a0, a0, 208
	vl8r.v	v0, (a0)                        # Unknown-size Folded Reload
	vslideup.vx	v8, v0, s10
	li	ra, 47
	vsetvli	zero, ra, e32, m8, tu, ma
	csrr	a0, vlenb
	li	a1, 545
	mul	a0, a0, a1
	add	a0, sp, a0
	addi	a0, a0, 208
	vl8r.v	v0, (a0)                        # Unknown-size Folded Reload
	vslideup.vx	v8, v0, s11
	li	a2, 48
	vsetvli	zero, a2, e32, m8, tu, ma
	csrr	a0, vlenb
	li	a1, 561
	mul	a0, a0, a1
	add	a0, sp, a0
	addi	a0, a0, 208
	vl8r.v	v0, (a0)                        # Unknown-size Folded Reload
	vslideup.vx	v8, v0, ra
	li	a7, 49
	vsetvli	zero, a7, e32, m8, tu, ma
	csrr	a0, vlenb
	li	a1, 577
	mul	a0, a0, a1
	add	a0, sp, a0
	addi	a0, a0, 208
	vl8r.v	v0, (a0)                        # Unknown-size Folded Reload
	vslideup.vx	v8, v0, a2
	li	a6, 50
	vsetvli	zero, a6, e32, m8, tu, ma
	csrr	a0, vlenb
	li	a1, 593
	mul	a0, a0, a1
	add	a0, sp, a0
	addi	a0, a0, 208
	vl8r.v	v0, (a0)                        # Unknown-size Folded Reload
	vslideup.vx	v8, v0, a7
	li	a1, 51
	vsetvli	zero, a1, e32, m8, tu, ma
	csrr	a0, vlenb
	li	t5, 609
	mul	a0, a0, t5
	add	a0, sp, a0
	addi	a0, a0, 208
	vl8r.v	v0, (a0)                        # Unknown-size Folded Reload
	vslideup.vx	v8, v0, a6
	li	t6, 52
	vsetvli	zero, t6, e32, m8, tu, ma
	csrr	a0, vlenb
	li	t5, 625
	mul	a0, a0, t5
	add	a0, sp, a0
	addi	a0, a0, 208
	vl8r.v	v0, (a0)                        # Unknown-size Folded Reload
	vslideup.vx	v8, v0, a1
	li	s0, 53
	vsetvli	zero, s0, e32, m8, tu, ma
	csrr	a0, vlenb
	li	t5, 641
	mul	a0, a0, t5
	add	a0, sp, a0
	addi	a0, a0, 208
	vl8r.v	v0, (a0)                        # Unknown-size Folded Reload
	vslideup.vx	v8, v0, t6
	li	s1, 54
	vsetvli	zero, s1, e32, m8, tu, ma
	csrr	a0, vlenb
	li	t5, 657
	mul	a0, a0, t5
	add	a0, sp, a0
	addi	a0, a0, 208
	vl8r.v	v0, (a0)                        # Unknown-size Folded Reload
	vslideup.vx	v8, v0, s0
	li	s2, 55
	vsetvli	zero, s2, e32, m8, tu, ma
	csrr	a0, vlenb
	li	t5, 673
	mul	a0, a0, t5
	add	a0, sp, a0
	addi	a0, a0, 208
	vl8r.v	v0, (a0)                        # Unknown-size Folded Reload
	vslideup.vx	v8, v0, s1
	li	s3, 56
	vsetvli	zero, s3, e32, m8, tu, ma
	csrr	a0, vlenb
	li	t5, 689
	mul	a0, a0, t5
	add	a0, sp, a0
	addi	a0, a0, 208
	vl8r.v	v0, (a0)                        # Unknown-size Folded Reload
	vslideup.vx	v8, v0, s2
	li	t5, 57
	vsetvli	zero, t5, e32, m8, tu, ma
	li	s4, 57
	csrr	a0, vlenb
	li	t5, 705
	mul	a0, a0, t5
	add	a0, sp, a0
	addi	a0, a0, 208
	vl8r.v	v0, (a0)                        # Unknown-size Folded Reload
	vslideup.vx	v8, v0, s3
	li	t5, 58
	vsetvli	zero, t5, e32, m8, tu, ma
	csrr	a0, vlenb
	li	s5, 721
	mul	a0, a0, s5
	add	a0, sp, a0
	addi	a0, a0, 208
	vl8r.v	v0, (a0)                        # Unknown-size Folded Reload
	vslideup.vx	v8, v0, s4
	li	s8, 59
	vsetvli	zero, s8, e32, m8, tu, ma
	csrr	a0, vlenb
	li	s4, 737
	mul	a0, a0, s4
	add	a0, sp, a0
	addi	a0, a0, 208
	vl8r.v	v0, (a0)                        # Unknown-size Folded Reload
	vslideup.vx	v8, v0, t5
	li	s4, 60
	vsetvli	zero, s4, e32, m8, tu, ma
	li	s5, 60
	csrr	a0, vlenb
	li	s4, 753
	mul	a0, a0, s4
	add	a0, sp, a0
	addi	a0, a0, 208
	vl8r.v	v0, (a0)                        # Unknown-size Folded Reload
	vslideup.vx	v8, v0, s8
	li	s4, 61
	vsetvli	zero, s4, e32, m8, tu, ma
	li	a0, 61
	csrr	s4, vlenb
	li	s7, 761
	mul	s4, s4, s7
	add	s4, sp, s4
	addi	s4, s4, 208
	vl8r.v	v0, (s4)                        # Unknown-size Folded Reload
	vslideup.vx	v8, v0, s5
	li	s4, 62
	vsetvli	zero, s4, e32, m8, tu, ma
	li	s5, 62
	csrr	s4, vlenb
	li	s7, 777
	mul	s4, s4, s7
	add	s4, sp, s4
	addi	s4, s4, 208
	vl8r.v	v0, (s4)                        # Unknown-size Folded Reload
	vslideup.vx	v8, v0, a0
	li	s4, 63
	vsetvli	zero, s4, e32, m8, tu, ma
	li	a0, 63
	csrr	s4, vlenb
	li	s7, 793
	mul	s4, s4, s7
	add	s4, sp, s4
	addi	s4, s4, 208
	vl8r.v	v0, (s4)                        # Unknown-size Folded Reload
	vslideup.vx	v8, v0, s5
	li	s4, 64
	vsetvli	zero, s4, e32, m8, ta, ma
	csrr	s4, vlenb
	li	s5, 809
	mul	s4, s4, s5
	add	s4, sp, s4
	addi	s4, s4, 208
	vl8r.v	v0, (s4)                        # Unknown-size Folded Reload
	vslideup.vx	v8, v0, a0
	ld	s4, 192(sp)                     # 8-byte Folded Reload
	ld	s5, 96(sp)                      # 8-byte Folded Reload
	add	s4, s5, s4
	slli	s4, s4, 2
	ld	s5, 56(sp)                      # 8-byte Folded Reload
	add	s4, s5, s4
	vse32.v	v8, (s4)
	vsetivli	zero, 2, e32, m8, tu, ma
	csrr	a0, vlenb
	li	s5, 265
	mul	a0, a0, s5
	add	a0, sp, a0
	addi	a0, a0, 208
	vl8r.v	v8, (a0)                        # Unknown-size Folded Reload
	vslideup.vi	v24, v8, 1
	vsetivli	zero, 3, e32, m8, tu, ma
	csrr	a0, vlenb
	li	s5, 281
	mul	a0, a0, s5
	add	a0, sp, a0
	addi	a0, a0, 208
	vl8r.v	v8, (a0)                        # Unknown-size Folded Reload
	vslideup.vi	v24, v8, 2
	vsetivli	zero, 4, e32, m8, tu, ma
	csrr	a0, vlenb
	li	s5, 297
	mul	a0, a0, s5
	add	a0, sp, a0
	addi	a0, a0, 208
	vl8r.v	v8, (a0)                        # Unknown-size Folded Reload
	vslideup.vi	v24, v8, 3
	vsetivli	zero, 5, e32, m8, tu, ma
	csrr	a0, vlenb
	li	s5, 313
	mul	a0, a0, s5
	add	a0, sp, a0
	addi	a0, a0, 208
	vl8r.v	v8, (a0)                        # Unknown-size Folded Reload
	vslideup.vi	v24, v8, 4
	vsetivli	zero, 6, e32, m8, tu, ma
	csrr	a0, vlenb
	li	s5, 329
	mul	a0, a0, s5
	add	a0, sp, a0
	addi	a0, a0, 208
	vl8r.v	v8, (a0)                        # Unknown-size Folded Reload
	vslideup.vi	v24, v8, 5
	vsetivli	zero, 7, e32, m8, tu, ma
	csrr	a0, vlenb
	li	s5, 345
	mul	a0, a0, s5
	add	a0, sp, a0
	addi	a0, a0, 208
	vl8r.v	v8, (a0)                        # Unknown-size Folded Reload
	vslideup.vi	v24, v8, 6
	vsetivli	zero, 8, e32, m8, tu, ma
	csrr	a0, vlenb
	li	s5, 361
	mul	a0, a0, s5
	add	a0, sp, a0
	addi	a0, a0, 208
	vl8r.v	v8, (a0)                        # Unknown-size Folded Reload
	vslideup.vi	v24, v8, 7
	vsetivli	zero, 9, e32, m8, tu, ma
	csrr	a0, vlenb
	li	s5, 377
	mul	a0, a0, s5
	add	a0, sp, a0
	addi	a0, a0, 208
	vl8r.v	v8, (a0)                        # Unknown-size Folded Reload
	vslideup.vi	v24, v8, 8
	vsetivli	zero, 10, e32, m8, tu, ma
	csrr	a0, vlenb
	li	s5, 393
	mul	a0, a0, s5
	add	a0, sp, a0
	addi	a0, a0, 208
	vl8r.v	v8, (a0)                        # Unknown-size Folded Reload
	vslideup.vi	v24, v8, 9
	vsetivli	zero, 11, e32, m8, tu, ma
	csrr	a0, vlenb
	li	s5, 409
	mul	a0, a0, s5
	add	a0, sp, a0
	addi	a0, a0, 208
	vl8r.v	v8, (a0)                        # Unknown-size Folded Reload
	vslideup.vi	v24, v8, 10
	vsetivli	zero, 12, e32, m8, tu, ma
	csrr	a0, vlenb
	li	s5, 425
	mul	a0, a0, s5
	add	a0, sp, a0
	addi	a0, a0, 208
	vl8r.v	v8, (a0)                        # Unknown-size Folded Reload
	vslideup.vi	v24, v8, 11
	vsetivli	zero, 13, e32, m8, tu, ma
	csrr	a0, vlenb
	li	s5, 441
	mul	a0, a0, s5
	add	a0, sp, a0
	addi	a0, a0, 208
	vl8r.v	v8, (a0)                        # Unknown-size Folded Reload
	vslideup.vi	v24, v8, 12
	vsetivli	zero, 14, e32, m8, tu, ma
	csrr	a0, vlenb
	li	s5, 457
	mul	a0, a0, s5
	add	a0, sp, a0
	addi	a0, a0, 208
	vl8r.v	v8, (a0)                        # Unknown-size Folded Reload
	vslideup.vi	v24, v8, 13
	vsetivli	zero, 15, e32, m8, tu, ma
	csrr	a0, vlenb
	li	s5, 473
	mul	a0, a0, s5
	add	a0, sp, a0
	addi	a0, a0, 208
	vl8r.v	v8, (a0)                        # Unknown-size Folded Reload
	vslideup.vi	v24, v8, 14
	vsetivli	zero, 16, e32, m8, tu, ma
	csrr	a0, vlenb
	li	s5, 489
	mul	a0, a0, s5
	add	a0, sp, a0
	addi	a0, a0, 208
	vl8r.v	v8, (a0)                        # Unknown-size Folded Reload
	vslideup.vi	v24, v8, 15
	vsetivli	zero, 17, e32, m8, tu, ma
	csrr	a0, vlenb
	li	s5, 505
	mul	a0, a0, s5
	add	a0, sp, a0
	addi	a0, a0, 208
	vl8r.v	v8, (a0)                        # Unknown-size Folded Reload
	vslideup.vi	v24, v8, 16
	vsetivli	zero, 18, e32, m8, tu, ma
	csrr	a0, vlenb
	li	s5, 521
	mul	a0, a0, s5
	add	a0, sp, a0
	addi	a0, a0, 208
	vl8r.v	v8, (a0)                        # Unknown-size Folded Reload
	vslideup.vi	v24, v8, 17
	vsetivli	zero, 19, e32, m8, tu, ma
	csrr	a0, vlenb
	li	s5, 537
	mul	a0, a0, s5
	add	a0, sp, a0
	addi	a0, a0, 208
	vl8r.v	v8, (a0)                        # Unknown-size Folded Reload
	vslideup.vi	v24, v8, 18
	vsetivli	zero, 20, e32, m8, tu, ma
	csrr	a0, vlenb
	li	s5, 553
	mul	a0, a0, s5
	add	a0, sp, a0
	addi	a0, a0, 208
	vl8r.v	v8, (a0)                        # Unknown-size Folded Reload
	vslideup.vi	v24, v8, 19
	vsetivli	zero, 21, e32, m8, tu, ma
	csrr	a0, vlenb
	li	s5, 569
	mul	a0, a0, s5
	add	a0, sp, a0
	addi	a0, a0, 208
	vl8r.v	v8, (a0)                        # Unknown-size Folded Reload
	vslideup.vi	v24, v8, 20
	vsetivli	zero, 22, e32, m8, tu, ma
	csrr	a0, vlenb
	li	s5, 585
	mul	a0, a0, s5
	add	a0, sp, a0
	addi	a0, a0, 208
	vl8r.v	v8, (a0)                        # Unknown-size Folded Reload
	vslideup.vi	v24, v8, 21
	vsetivli	zero, 23, e32, m8, tu, ma
	csrr	a0, vlenb
	li	s5, 601
	mul	a0, a0, s5
	add	a0, sp, a0
	addi	a0, a0, 208
	vl8r.v	v8, (a0)                        # Unknown-size Folded Reload
	vslideup.vi	v24, v8, 22
	vsetivli	zero, 24, e32, m8, tu, ma
	csrr	a0, vlenb
	li	s5, 617
	mul	a0, a0, s5
	add	a0, sp, a0
	addi	a0, a0, 208
	vl8r.v	v8, (a0)                        # Unknown-size Folded Reload
	vslideup.vi	v24, v8, 23
	vsetivli	zero, 25, e32, m8, tu, ma
	csrr	a0, vlenb
	li	s5, 633
	mul	a0, a0, s5
	add	a0, sp, a0
	addi	a0, a0, 208
	vl8r.v	v8, (a0)                        # Unknown-size Folded Reload
	vslideup.vi	v24, v8, 24
	vsetivli	zero, 26, e32, m8, tu, ma
	csrr	a0, vlenb
	li	s5, 649
	mul	a0, a0, s5
	add	a0, sp, a0
	addi	a0, a0, 208
	vl8r.v	v8, (a0)                        # Unknown-size Folded Reload
	vslideup.vi	v24, v8, 25
	vsetivli	zero, 27, e32, m8, tu, ma
	csrr	a0, vlenb
	li	s5, 665
	mul	a0, a0, s5
	add	a0, sp, a0
	addi	a0, a0, 208
	vl8r.v	v8, (a0)                        # Unknown-size Folded Reload
	vslideup.vi	v24, v8, 26
	vsetivli	zero, 28, e32, m8, tu, ma
	csrr	a0, vlenb
	li	s5, 681
	mul	a0, a0, s5
	add	a0, sp, a0
	addi	a0, a0, 208
	vl8r.v	v8, (a0)                        # Unknown-size Folded Reload
	vslideup.vi	v24, v8, 27
	vsetivli	zero, 29, e32, m8, tu, ma
	csrr	a0, vlenb
	li	s5, 697
	mul	a0, a0, s5
	add	a0, sp, a0
	addi	a0, a0, 208
	vl8r.v	v8, (a0)                        # Unknown-size Folded Reload
	vslideup.vi	v24, v8, 28
	vsetivli	zero, 30, e32, m8, tu, ma
	csrr	a0, vlenb
	li	s5, 713
	mul	a0, a0, s5
	add	a0, sp, a0
	addi	a0, a0, 208
	vl8r.v	v8, (a0)                        # Unknown-size Folded Reload
	vslideup.vi	v24, v8, 29
	vsetivli	zero, 31, e32, m8, tu, ma
	csrr	a0, vlenb
	li	s5, 729
	mul	a0, a0, s5
	add	a0, sp, a0
	addi	a0, a0, 208
	vl8r.v	v8, (a0)                        # Unknown-size Folded Reload
	vslideup.vi	v24, v8, 30
	li	s5, 32
	vsetvli	zero, s5, e32, m8, tu, ma
	csrr	a0, vlenb
	li	s7, 745
	mul	a0, a0, s7
	add	a0, sp, a0
	addi	a0, a0, 208
	vl8r.v	v8, (a0)                        # Unknown-size Folded Reload
	vslideup.vi	v24, v8, 31
	vsetvli	zero, s6, e32, m8, tu, ma
	csrr	a0, vlenb
	li	s7, 769
	mul	a0, a0, s7
	ld	s7, 8(sp)
	add	a0, sp, a0
	addi	a0, a0, 208
	vl8r.v	v8, (a0)                        # Unknown-size Folded Reload
	vslideup.vx	v24, v8, s5
	vsetvli	zero, s7, e32, m8, tu, ma
	csrr	a0, vlenb
	li	s5, 785
	mul	a0, a0, s5
	add	a0, sp, a0
	addi	a0, a0, 208
	vl8r.v	v8, (a0)                        # Unknown-size Folded Reload
	vslideup.vx	v24, v8, s6
	vsetvli	zero, s9, e32, m8, tu, ma
	csrr	a0, vlenb
	li	s5, 801
	mul	a0, a0, s5
	add	a0, sp, a0
	addi	a0, a0, 208
	vl8r.v	v8, (a0)                        # Unknown-size Folded Reload
	vslideup.vx	v24, v8, s7
	vsetvli	zero, t2, e32, m8, tu, ma
	csrr	a0, vlenb
	li	s5, 817
	mul	a0, a0, s5
	add	a0, sp, a0
	addi	a0, a0, 208
	vl8r.v	v8, (a0)                        # Unknown-size Folded Reload
	vslideup.vx	v24, v8, s9
	vsetvli	zero, t3, e32, m8, tu, ma
	csrr	a0, vlenb
	li	s5, 825
	mul	a0, a0, s5
	add	a0, sp, a0
	addi	a0, a0, 208
	vl8r.v	v8, (a0)                        # Unknown-size Folded Reload
	vslideup.vx	v24, v8, t2
	vsetvli	zero, t4, e32, m8, tu, ma
	csrr	a0, vlenb
	li	t2, 833
	mul	a0, a0, t2
	add	a0, sp, a0
	addi	a0, a0, 208
	vl8r.v	v8, (a0)                        # Unknown-size Folded Reload
	vslideup.vx	v24, v8, t3
	vsetvli	zero, a5, e32, m8, tu, ma
	csrr	a0, vlenb
	li	t2, 841
	mul	a0, a0, t2
	add	a0, sp, a0
	addi	a0, a0, 208
	vl8r.v	v8, (a0)                        # Unknown-size Folded Reload
	vslideup.vx	v24, v8, t4
	vsetvli	zero, a3, e32, m8, tu, ma
	csrr	a0, vlenb
	li	t2, 849
	mul	a0, a0, t2
	add	a0, sp, a0
	addi	a0, a0, 208
	vl8r.v	v8, (a0)                        # Unknown-size Folded Reload
	vslideup.vx	v24, v8, a5
	vsetvli	zero, t0, e32, m8, tu, ma
	csrr	a0, vlenb
	li	a5, 857
	mul	a0, a0, a5
	add	a0, sp, a0
	addi	a0, a0, 208
	vl8r.v	v8, (a0)                        # Unknown-size Folded Reload
	vslideup.vx	v24, v8, a3
	vsetvli	zero, t1, e32, m8, tu, ma
	csrr	a0, vlenb
	li	a3, 865
	mul	a0, a0, a3
	add	a0, sp, a0
	addi	a0, a0, 208
	vl8r.v	v8, (a0)                        # Unknown-size Folded Reload
	vslideup.vx	v24, v8, t0
	vsetvli	zero, a4, e32, m8, tu, ma
	csrr	a0, vlenb
	li	a3, 873
	mul	a0, a0, a3
	add	a0, sp, a0
	addi	a0, a0, 208
	vl8r.v	v8, (a0)                        # Unknown-size Folded Reload
	vslideup.vx	v24, v8, t1
	li	a0, 44
	vsetvli	zero, a0, e32, m8, tu, ma
	csrr	a3, vlenb
	li	a5, 881
	mul	a3, a3, a5
	add	a3, sp, a3
	addi	a3, a3, 208
	vl8r.v	v8, (a3)                        # Unknown-size Folded Reload
	vslideup.vx	v24, v8, a4
	vsetvli	zero, s10, e32, m8, tu, ma
	csrr	a3, vlenb
	li	a4, 889
	mul	a3, a3, a4
	add	a3, sp, a3
	addi	a3, a3, 208
	vl8r.v	v8, (a3)                        # Unknown-size Folded Reload
	vslideup.vx	v24, v8, a0
	vsetvli	zero, s11, e32, m8, tu, ma
	csrr	a0, vlenb
	li	a3, 897
	mul	a0, a0, a3
	add	a0, sp, a0
	addi	a0, a0, 208
	vl8r.v	v8, (a0)                        # Unknown-size Folded Reload
	vslideup.vx	v24, v8, s10
	vsetvli	zero, ra, e32, m8, tu, ma
	csrr	a0, vlenb
	li	a3, 913
	mul	a0, a0, a3
	add	a0, sp, a0
	addi	a0, a0, 208
	vl8r.v	v8, (a0)                        # Unknown-size Folded Reload
	vslideup.vx	v24, v8, s11
	vsetvli	zero, a2, e32, m8, tu, ma
	csrr	a0, vlenb
	li	a3, 929
	mul	a0, a0, a3
	add	a0, sp, a0
	addi	a0, a0, 208
	vl8r.v	v8, (a0)                        # Unknown-size Folded Reload
	vslideup.vx	v24, v8, ra
	vsetvli	zero, a7, e32, m8, tu, ma
	csrr	a0, vlenb
	li	a3, 945
	mul	a0, a0, a3
	add	a0, sp, a0
	addi	a0, a0, 208
	vl8r.v	v8, (a0)                        # Unknown-size Folded Reload
	vslideup.vx	v24, v8, a2
	vsetvli	zero, a6, e32, m8, tu, ma
	csrr	a0, vlenb
	li	a2, 961
	mul	a0, a0, a2
	add	a0, sp, a0
	addi	a0, a0, 208
	vl8r.v	v8, (a0)                        # Unknown-size Folded Reload
	vslideup.vx	v24, v8, a7
	vsetvli	zero, a1, e32, m8, tu, ma
	csrr	a0, vlenb
	li	a2, 977
	mul	a0, a0, a2
	add	a0, sp, a0
	addi	a0, a0, 208
	vl8r.v	v8, (a0)                        # Unknown-size Folded Reload
	vslideup.vx	v24, v8, a6
	vsetvli	zero, t6, e32, m8, tu, ma
	csrr	a0, vlenb
	li	a2, 993
	mul	a0, a0, a2
	add	a0, sp, a0
	addi	a0, a0, 208
	vl8r.v	v8, (a0)                        # Unknown-size Folded Reload
	vslideup.vx	v24, v8, a1
	vsetvli	zero, s0, e32, m8, tu, ma
	csrr	a0, vlenb
	li	a1, 1009
	mul	a0, a0, a1
	add	a0, sp, a0
	addi	a0, a0, 208
	vl8r.v	v8, (a0)                        # Unknown-size Folded Reload
	vslideup.vx	v24, v8, t6
	vsetvli	zero, s1, e32, m8, tu, ma
	csrr	a0, vlenb
	li	a1, 1017
	mul	a0, a0, a1
	add	a0, sp, a0
	addi	a0, a0, 208
	vl8r.v	v8, (a0)                        # Unknown-size Folded Reload
	vslideup.vx	v24, v8, s0
	vsetvli	zero, s2, e32, m8, tu, ma
	csrr	a0, vlenb
	li	a1, 1033
	mul	a0, a0, a1
	add	a0, sp, a0
	addi	a0, a0, 208
	vl8r.v	v8, (a0)                        # Unknown-size Folded Reload
	vslideup.vx	v24, v8, s1
	vsetvli	zero, s3, e32, m8, tu, ma
	csrr	a0, vlenb
	li	a1, 1049
	mul	a0, a0, a1
	add	a0, sp, a0
	addi	a0, a0, 208
	vl8r.v	v8, (a0)                        # Unknown-size Folded Reload
	vslideup.vx	v24, v8, s2
	li	a0, 57
	vsetvli	zero, a0, e32, m8, tu, ma
	csrr	a1, vlenb
	li	a2, 1065
	mul	a1, a1, a2
	add	a1, sp, a1
	addi	a1, a1, 208
	vl8r.v	v8, (a1)                        # Unknown-size Folded Reload
	vslideup.vx	v24, v8, s3
	vsetvli	zero, t5, e32, m8, tu, ma
	csrr	a1, vlenb
	li	a2, 1081
	mul	a1, a1, a2
	add	a1, sp, a1
	addi	a1, a1, 208
	vl8r.v	v8, (a1)                        # Unknown-size Folded Reload
	vslideup.vx	v24, v8, a0
	vsetvli	zero, s8, e32, m8, tu, ma
	csrr	a0, vlenb
	li	a1, 1097
	mul	a0, a0, a1
	add	a0, sp, a0
	addi	a0, a0, 208
	vl8r.v	v8, (a0)                        # Unknown-size Folded Reload
	vslideup.vx	v24, v8, t5
	li	a0, 60
	vsetvli	zero, a0, e32, m8, tu, ma
	csrr	a1, vlenb
	li	a2, 1113
	mul	a1, a1, a2
	add	a1, sp, a1
	addi	a1, a1, 208
	vl8r.v	v8, (a1)                        # Unknown-size Folded Reload
	vslideup.vx	v24, v8, s8
	li	a1, 61
	vsetvli	zero, a1, e32, m8, tu, ma
	csrr	a2, vlenb
	li	a3, 1129
	mul	a2, a2, a3
	add	a2, sp, a2
	addi	a2, a2, 208
	vl8r.v	v8, (a2)                        # Unknown-size Folded Reload
	vslideup.vx	v24, v8, a0
	li	a0, 62
	vsetvli	zero, a0, e32, m8, tu, ma
	csrr	a2, vlenb
	li	a3, 1145
	mul	a2, a2, a3
	add	a2, sp, a2
	addi	a2, a2, 208
	vl8r.v	v8, (a2)                        # Unknown-size Folded Reload
	vslideup.vx	v24, v8, a1
	li	a1, 63
	vsetvli	zero, a1, e32, m8, tu, ma
	csrr	a2, vlenb
	li	a3, 1161
	mul	a2, a2, a3
	add	a2, sp, a2
	addi	a2, a2, 208
	vl8r.v	v8, (a2)                        # Unknown-size Folded Reload
	vslideup.vx	v24, v8, a0
	li	a0, 64
	vsetvli	zero, a0, e32, m8, ta, ma
	csrr	a0, vlenb
	li	a2, 1185
	mul	a0, a0, a2
	add	a0, sp, a0
	addi	a0, a0, 208
	vl8r.v	v8, (a0)                        # Unknown-size Folded Reload
	vslideup.vx	v24, v8, a1
	addi	s5, s4, 256
	vse32.v	v24, (s5)
	vsetivli	zero, 2, e32, m8, tu, ma
	csrr	a0, vlenb
	li	a1, 905
	mul	a0, a0, a1
	add	a0, sp, a0
	addi	a0, a0, 208
	vl8r.v	v8, (a0)                        # Unknown-size Folded Reload
	vslideup.vi	v16, v8, 1
	vsetivli	zero, 3, e32, m8, tu, ma
	csrr	a0, vlenb
	li	a1, 921
	mul	a0, a0, a1
	add	a0, sp, a0
	addi	a0, a0, 208
	vl8r.v	v8, (a0)                        # Unknown-size Folded Reload
	vslideup.vi	v16, v8, 2
	vsetivli	zero, 4, e32, m8, tu, ma
	csrr	a0, vlenb
	li	a1, 937
	mul	a0, a0, a1
	add	a0, sp, a0
	addi	a0, a0, 208
	vl8r.v	v8, (a0)                        # Unknown-size Folded Reload
	vslideup.vi	v16, v8, 3
	vsetivli	zero, 5, e32, m8, tu, ma
	csrr	a0, vlenb
	li	a1, 953
	mul	a0, a0, a1
	add	a0, sp, a0
	addi	a0, a0, 208
	vl8r.v	v8, (a0)                        # Unknown-size Folded Reload
	vslideup.vi	v16, v8, 4
	vsetivli	zero, 6, e32, m8, tu, ma
	csrr	a0, vlenb
	li	a1, 969
	mul	a0, a0, a1
	add	a0, sp, a0
	addi	a0, a0, 208
	vl8r.v	v8, (a0)                        # Unknown-size Folded Reload
	vslideup.vi	v16, v8, 5
	vsetivli	zero, 7, e32, m8, tu, ma
	csrr	a0, vlenb
	li	a1, 985
	mul	a0, a0, a1
	add	a0, sp, a0
	addi	a0, a0, 208
	vl8r.v	v8, (a0)                        # Unknown-size Folded Reload
	vslideup.vi	v16, v8, 6
	vsetivli	zero, 8, e32, m8, tu, ma
	csrr	a0, vlenb
	li	a1, 1001
	mul	a0, a0, a1
	add	a0, sp, a0
	addi	a0, a0, 208
	vl8r.v	v8, (a0)                        # Unknown-size Folded Reload
	vslideup.vi	v16, v8, 7
	vsetivli	zero, 9, e32, m8, tu, ma
	csrr	a0, vlenb
	slli	a1, a0, 10
	add	a0, a1, a0
	add	a0, sp, a0
	addi	a0, a0, 208
	vl8r.v	v8, (a0)                        # Unknown-size Folded Reload
	vslideup.vi	v16, v8, 8
	vsetivli	zero, 10, e32, m8, tu, ma
	csrr	a0, vlenb
	li	a1, 1041
	mul	a0, a0, a1
	add	a0, sp, a0
	addi	a0, a0, 208
	vl8r.v	v8, (a0)                        # Unknown-size Folded Reload
	vslideup.vi	v16, v8, 9
	vsetivli	zero, 11, e32, m8, tu, ma
	csrr	a0, vlenb
	li	a1, 1057
	mul	a0, a0, a1
	add	a0, sp, a0
	addi	a0, a0, 208
	vl8r.v	v8, (a0)                        # Unknown-size Folded Reload
	vslideup.vi	v16, v8, 10
	vsetivli	zero, 12, e32, m8, tu, ma
	csrr	a0, vlenb
	li	a1, 1073
	mul	a0, a0, a1
	add	a0, sp, a0
	addi	a0, a0, 208
	vl8r.v	v8, (a0)                        # Unknown-size Folded Reload
	vslideup.vi	v16, v8, 11
	vsetivli	zero, 13, e32, m8, tu, ma
	csrr	a0, vlenb
	li	a1, 1089
	mul	a0, a0, a1
	add	a0, sp, a0
	addi	a0, a0, 208
	vl8r.v	v8, (a0)                        # Unknown-size Folded Reload
	vslideup.vi	v16, v8, 12
	vsetivli	zero, 14, e32, m8, tu, ma
	csrr	a0, vlenb
	li	a1, 1105
	mul	a0, a0, a1
	add	a0, sp, a0
	addi	a0, a0, 208
	vl8r.v	v8, (a0)                        # Unknown-size Folded Reload
	vslideup.vi	v16, v8, 13
	vsetivli	zero, 15, e32, m8, tu, ma
	csrr	a0, vlenb
	li	a1, 1121
	mul	a0, a0, a1
	add	a0, sp, a0
	addi	a0, a0, 208
	vl8r.v	v8, (a0)                        # Unknown-size Folded Reload
	vslideup.vi	v16, v8, 14
	vsetivli	zero, 16, e32, m8, tu, ma
	csrr	a0, vlenb
	li	a1, 1137
	mul	a0, a0, a1
	add	a0, sp, a0
	addi	a0, a0, 208
	vl8r.v	v8, (a0)                        # Unknown-size Folded Reload
	vslideup.vi	v16, v8, 15
	vsetivli	zero, 17, e32, m8, tu, ma
	csrr	a0, vlenb
	li	a1, 1153
	mul	a0, a0, a1
	add	a0, sp, a0
	addi	a0, a0, 208
	vl8r.v	v8, (a0)                        # Unknown-size Folded Reload
	vslideup.vi	v16, v8, 16
	vsetivli	zero, 18, e32, m8, tu, ma
	csrr	a0, vlenb
	li	a1, 1169
	mul	a0, a0, a1
	add	a0, sp, a0
	addi	a0, a0, 208
	vl8r.v	v8, (a0)                        # Unknown-size Folded Reload
	vslideup.vi	v16, v8, 17
	vsetivli	zero, 19, e32, m8, tu, ma
	csrr	a0, vlenb
	li	a1, 1177
	mul	a0, a0, a1
	add	a0, sp, a0
	addi	a0, a0, 208
	vl8r.v	v8, (a0)                        # Unknown-size Folded Reload
	vslideup.vi	v16, v8, 18
	vsetivli	zero, 20, e32, m8, tu, ma
	csrr	a0, vlenb
	li	a1, 1201
	mul	a0, a0, a1
	add	a0, sp, a0
	addi	a0, a0, 208
	vl8r.v	v8, (a0)                        # Unknown-size Folded Reload
	vslideup.vi	v16, v8, 19
	vsetivli	zero, 21, e32, m8, tu, ma
	csrr	a0, vlenb
	li	a1, 1193
	mul	a0, a0, a1
	add	a0, sp, a0
	addi	a0, a0, 208
	vl8r.v	v8, (a0)                        # Unknown-size Folded Reload
	vslideup.vi	v16, v8, 20
	vsetivli	zero, 22, e32, m8, tu, ma
	csrr	a0, vlenb
	li	a1, 1217
	mul	a0, a0, a1
	add	a0, sp, a0
	addi	a0, a0, 208
	vl8r.v	v8, (a0)                        # Unknown-size Folded Reload
	vslideup.vi	v16, v8, 21
	vsetivli	zero, 23, e32, m8, tu, ma
	csrr	a0, vlenb
	li	a1, 1209
	mul	a0, a0, a1
	add	a0, sp, a0
	addi	a0, a0, 208
	vl8r.v	v8, (a0)                        # Unknown-size Folded Reload
	vslideup.vi	v16, v8, 22
	vsetivli	zero, 24, e32, m8, tu, ma
	csrr	a0, vlenb
	li	a1, 1233
	mul	a0, a0, a1
	add	a0, sp, a0
	addi	a0, a0, 208
	vl8r.v	v8, (a0)                        # Unknown-size Folded Reload
	vslideup.vi	v16, v8, 23
	vsetivli	zero, 25, e32, m8, tu, ma
	csrr	a0, vlenb
	li	a1, 1225
	mul	a0, a0, a1
	add	a0, sp, a0
	addi	a0, a0, 208
	vl8r.v	v8, (a0)                        # Unknown-size Folded Reload
	vslideup.vi	v16, v8, 24
	vsetivli	zero, 26, e32, m8, tu, ma
	csrr	a0, vlenb
	li	a1, 1249
	mul	a0, a0, a1
	add	a0, sp, a0
	addi	a0, a0, 208
	vl8r.v	v8, (a0)                        # Unknown-size Folded Reload
	vslideup.vi	v16, v8, 25
	vsetivli	zero, 27, e32, m8, tu, ma
	csrr	a0, vlenb
	li	a1, 1241
	mul	a0, a0, a1
	add	a0, sp, a0
	addi	a0, a0, 208
	vl8r.v	v8, (a0)                        # Unknown-size Folded Reload
	vslideup.vi	v16, v8, 26
	vsetivli	zero, 28, e32, m8, tu, ma
	csrr	a0, vlenb
	li	a1, 1265
	mul	a0, a0, a1
	add	a0, sp, a0
	addi	a0, a0, 208
	vl8r.v	v8, (a0)                        # Unknown-size Folded Reload
	vslideup.vi	v16, v8, 27
	vsetivli	zero, 29, e32, m8, tu, ma
	csrr	a0, vlenb
	li	a1, 1257
	mul	a0, a0, a1
	add	a0, sp, a0
	addi	a0, a0, 208
	vl8r.v	v8, (a0)                        # Unknown-size Folded Reload
	vslideup.vi	v16, v8, 28
	vsetivli	zero, 30, e32, m8, tu, ma
	csrr	a0, vlenb
	li	a1, 1281
	mul	a0, a0, a1
	add	a0, sp, a0
	addi	a0, a0, 208
	vl8r.v	v8, (a0)                        # Unknown-size Folded Reload
	vslideup.vi	v16, v8, 29
	vsetivli	zero, 31, e32, m8, tu, ma
	csrr	a0, vlenb
	li	a1, 1273
	mul	a0, a0, a1
	add	a0, sp, a0
	addi	a0, a0, 208
	vl8r.v	v8, (a0)                        # Unknown-size Folded Reload
	vslideup.vi	v16, v8, 30
	li	a0, 32
	vsetvli	zero, a0, e32, m8, tu, ma
	csrr	a1, vlenb
	li	a2, 1289
	mul	a1, a1, a2
	add	a1, sp, a1
	addi	a1, a1, 208
	vl8r.v	v8, (a1)                        # Unknown-size Folded Reload
	vslideup.vi	v16, v8, 31
	addi	s4, s4, 512
	vsetvli	zero, a0, e32, m4, ta, ma
	vse32.v	v16, (s4)
.LBB0_11:                               #   in Loop: Header=BB0_12 Depth=2
	ld	s5, 80(sp)                      # 8-byte Folded Reload
	ld	s7, 72(sp)                      # 8-byte Folded Reload
	ld	a1, 104(sp)                     # 8-byte Folded Reload
.LBB0_12:                               #   Parent Loop BB0_2 Depth=1
                                        # =>  This Loop Header: Depth=2
                                        #       Child Loop BB0_18 Depth 3
                                        #       Child Loop BB0_15 Depth 3
	ld	a0, 88(sp)                      # 8-byte Folded Reload
	blt	a1, a0, .LBB0_13
	j	.LBB0_1
.LBB0_13:                               #   in Loop: Header=BB0_12 Depth=2
	li	s8, 160
	mul	a0, a1, s8
	sd	a0, 192(sp)                     # 8-byte Folded Spill
	sub	a2, s7, a0
	ld	s6, 64(sp)                      # 8-byte Folded Reload
	mul	a0, s5, s6
	sd	a0, 96(sp)                      # 8-byte Folded Spill
	addi	a1, a1, 1
	sd	a1, 104(sp)                     # 8-byte Folded Spill
	sd	a2, 136(sp)                     # 8-byte Folded Spill
	bge	a2, s8, .LBB0_14
	j	.LBB0_17
.LBB0_14:                               #   in Loop: Header=BB0_12 Depth=2
	li	a0, 0
	addi	a1, sp, 208
	vl1r.v	v9, (a1)                        # Unknown-size Folded Reload
	vmv1r.v	v8, v9
	vmv1r.v	v16, v9
	csrr	a1, vlenb
	li	a2, 41
	mul	a1, a1, a2
	add	a1, sp, a1
	addi	a1, a1, 208
	vs8r.v	v16, (a1)                       # Unknown-size Folded Spill
	csrr	a1, vlenb
	li	a2, 49
	mul	a1, a1, a2
	add	a1, sp, a1
	addi	a1, a1, 208
	vs8r.v	v16, (a1)                       # Unknown-size Folded Spill
	csrr	a1, vlenb
	li	a2, 57
	mul	a1, a1, a2
	add	a1, sp, a1
	addi	a1, a1, 208
	vs8r.v	v16, (a1)                       # Unknown-size Folded Spill
	csrr	a1, vlenb
	slli	a2, a1, 6
	add	a1, a2, a1
	add	a1, sp, a1
	addi	a1, a1, 208
	vs8r.v	v16, (a1)                       # Unknown-size Folded Spill
	csrr	a1, vlenb
	li	a2, 73
	mul	a1, a1, a2
	add	a1, sp, a1
	addi	a1, a1, 208
	vs8r.v	v16, (a1)                       # Unknown-size Folded Spill
	csrr	a1, vlenb
	li	a2, 81
	mul	a1, a1, a2
	add	a1, sp, a1
	addi	a1, a1, 208
	vs8r.v	v16, (a1)                       # Unknown-size Folded Spill
	csrr	a1, vlenb
	li	a2, 89
	mul	a1, a1, a2
	add	a1, sp, a1
	addi	a1, a1, 208
	vs8r.v	v16, (a1)                       # Unknown-size Folded Spill
	csrr	a1, vlenb
	li	a2, 97
	mul	a1, a1, a2
	add	a1, sp, a1
	addi	a1, a1, 208
	vs8r.v	v16, (a1)                       # Unknown-size Folded Spill
	csrr	a1, vlenb
	li	a2, 105
	mul	a1, a1, a2
	add	a1, sp, a1
	addi	a1, a1, 208
	vs8r.v	v16, (a1)                       # Unknown-size Folded Spill
	csrr	a1, vlenb
	li	a2, 113
	mul	a1, a1, a2
	add	a1, sp, a1
	addi	a1, a1, 208
	vs8r.v	v16, (a1)                       # Unknown-size Folded Spill
	csrr	a1, vlenb
	li	a2, 121
	mul	a1, a1, a2
	add	a1, sp, a1
	addi	a1, a1, 208
	vs8r.v	v16, (a1)                       # Unknown-size Folded Spill
	csrr	a1, vlenb
	slli	a2, a1, 7
	add	a1, a2, a1
	add	a1, sp, a1
	addi	a1, a1, 208
	vs8r.v	v16, (a1)                       # Unknown-size Folded Spill
	csrr	a1, vlenb
	li	a2, 137
	mul	a1, a1, a2
	add	a1, sp, a1
	addi	a1, a1, 208
	vs8r.v	v16, (a1)                       # Unknown-size Folded Spill
	csrr	a1, vlenb
	li	a2, 145
	mul	a1, a1, a2
	add	a1, sp, a1
	addi	a1, a1, 208
	vs8r.v	v16, (a1)                       # Unknown-size Folded Spill
	csrr	a1, vlenb
	li	a2, 153
	mul	a1, a1, a2
	add	a1, sp, a1
	addi	a1, a1, 208
	vs8r.v	v16, (a1)                       # Unknown-size Folded Spill
	csrr	a1, vlenb
	li	a2, 161
	mul	a1, a1, a2
	add	a1, sp, a1
	addi	a1, a1, 208
	vs8r.v	v16, (a1)                       # Unknown-size Folded Spill
	csrr	a1, vlenb
	li	a2, 169
	mul	a1, a1, a2
	add	a1, sp, a1
	addi	a1, a1, 208
	vs8r.v	v16, (a1)                       # Unknown-size Folded Spill
	csrr	a1, vlenb
	li	a2, 177
	mul	a1, a1, a2
	add	a1, sp, a1
	addi	a1, a1, 208
	vs8r.v	v16, (a1)                       # Unknown-size Folded Spill
	csrr	a1, vlenb
	li	a2, 185
	mul	a1, a1, a2
	add	a1, sp, a1
	addi	a1, a1, 208
	vs8r.v	v16, (a1)                       # Unknown-size Folded Spill
	csrr	a1, vlenb
	li	a2, 193
	mul	a1, a1, a2
	add	a1, sp, a1
	addi	a1, a1, 208
	vs8r.v	v16, (a1)                       # Unknown-size Folded Spill
	csrr	a1, vlenb
	li	a2, 201
	mul	a1, a1, a2
	add	a1, sp, a1
	addi	a1, a1, 208
	vs8r.v	v16, (a1)                       # Unknown-size Folded Spill
	csrr	a1, vlenb
	li	a2, 209
	mul	a1, a1, a2
	add	a1, sp, a1
	addi	a1, a1, 208
	vs8r.v	v16, (a1)                       # Unknown-size Folded Spill
	csrr	a1, vlenb
	li	a2, 217
	mul	a1, a1, a2
	add	a1, sp, a1
	addi	a1, a1, 208
	vs8r.v	v16, (a1)                       # Unknown-size Folded Spill
	csrr	a1, vlenb
	li	a2, 225
	mul	a1, a1, a2
	add	a1, sp, a1
	addi	a1, a1, 208
	vs8r.v	v16, (a1)                       # Unknown-size Folded Spill
	csrr	a1, vlenb
	li	a2, 233
	mul	a1, a1, a2
	add	a1, sp, a1
	addi	a1, a1, 208
	vs8r.v	v16, (a1)                       # Unknown-size Folded Spill
	csrr	a1, vlenb
	li	a2, 241
	mul	a1, a1, a2
	add	a1, sp, a1
	addi	a1, a1, 208
	vs8r.v	v16, (a1)                       # Unknown-size Folded Spill
	csrr	a1, vlenb
	li	a2, 249
	mul	a1, a1, a2
	add	a1, sp, a1
	addi	a1, a1, 208
	vs8r.v	v16, (a1)                       # Unknown-size Folded Spill
	csrr	a1, vlenb
	slli	a2, a1, 8
	add	a1, a2, a1
	add	a1, sp, a1
	addi	a1, a1, 208
	vs8r.v	v16, (a1)                       # Unknown-size Folded Spill
	csrr	a1, vlenb
	li	a2, 273
	mul	a1, a1, a2
	add	a1, sp, a1
	addi	a1, a1, 208
	vs8r.v	v16, (a1)                       # Unknown-size Folded Spill
	csrr	a1, vlenb
	li	a2, 289
	mul	a1, a1, a2
	add	a1, sp, a1
	addi	a1, a1, 208
	vs8r.v	v16, (a1)                       # Unknown-size Folded Spill
	csrr	a1, vlenb
	li	a2, 305
	mul	a1, a1, a2
	add	a1, sp, a1
	addi	a1, a1, 208
	vs8r.v	v16, (a1)                       # Unknown-size Folded Spill
	csrr	a1, vlenb
	li	a2, 321
	mul	a1, a1, a2
	add	a1, sp, a1
	addi	a1, a1, 208
	vs8r.v	v16, (a1)                       # Unknown-size Folded Spill
	csrr	a1, vlenb
	li	a2, 337
	mul	a1, a1, a2
	add	a1, sp, a1
	addi	a1, a1, 208
	vs8r.v	v16, (a1)                       # Unknown-size Folded Spill
	csrr	a1, vlenb
	li	a2, 353
	mul	a1, a1, a2
	add	a1, sp, a1
	addi	a1, a1, 208
	vs8r.v	v16, (a1)                       # Unknown-size Folded Spill
	csrr	a1, vlenb
	li	a2, 369
	mul	a1, a1, a2
	add	a1, sp, a1
	addi	a1, a1, 208
	vs8r.v	v16, (a1)                       # Unknown-size Folded Spill
	csrr	a1, vlenb
	li	a2, 385
	mul	a1, a1, a2
	add	a1, sp, a1
	addi	a1, a1, 208
	vs8r.v	v16, (a1)                       # Unknown-size Folded Spill
	csrr	a1, vlenb
	li	a2, 401
	mul	a1, a1, a2
	add	a1, sp, a1
	addi	a1, a1, 208
	vs8r.v	v16, (a1)                       # Unknown-size Folded Spill
	csrr	a1, vlenb
	li	a2, 417
	mul	a1, a1, a2
	add	a1, sp, a1
	addi	a1, a1, 208
	vs8r.v	v16, (a1)                       # Unknown-size Folded Spill
	csrr	a1, vlenb
	li	a2, 433
	mul	a1, a1, a2
	add	a1, sp, a1
	addi	a1, a1, 208
	vs8r.v	v16, (a1)                       # Unknown-size Folded Spill
	csrr	a1, vlenb
	li	a2, 449
	mul	a1, a1, a2
	add	a1, sp, a1
	addi	a1, a1, 208
	vs8r.v	v16, (a1)                       # Unknown-size Folded Spill
	csrr	a1, vlenb
	li	a2, 465
	mul	a1, a1, a2
	add	a1, sp, a1
	addi	a1, a1, 208
	vs8r.v	v16, (a1)                       # Unknown-size Folded Spill
	csrr	a1, vlenb
	li	a2, 481
	mul	a1, a1, a2
	add	a1, sp, a1
	addi	a1, a1, 208
	vs8r.v	v16, (a1)                       # Unknown-size Folded Spill
	csrr	a1, vlenb
	li	a2, 497
	mul	a1, a1, a2
	add	a1, sp, a1
	addi	a1, a1, 208
	vs8r.v	v16, (a1)                       # Unknown-size Folded Spill
	csrr	a1, vlenb
	slli	a2, a1, 9
	add	a1, a2, a1
	add	a1, sp, a1
	addi	a1, a1, 208
	vs8r.v	v16, (a1)                       # Unknown-size Folded Spill
	csrr	a1, vlenb
	li	a2, 529
	mul	a1, a1, a2
	add	a1, sp, a1
	addi	a1, a1, 208
	vs8r.v	v16, (a1)                       # Unknown-size Folded Spill
	csrr	a1, vlenb
	li	a2, 545
	mul	a1, a1, a2
	add	a1, sp, a1
	addi	a1, a1, 208
	vs8r.v	v16, (a1)                       # Unknown-size Folded Spill
	csrr	a1, vlenb
	li	a2, 561
	mul	a1, a1, a2
	add	a1, sp, a1
	addi	a1, a1, 208
	vs8r.v	v16, (a1)                       # Unknown-size Folded Spill
	csrr	a1, vlenb
	li	a2, 577
	mul	a1, a1, a2
	add	a1, sp, a1
	addi	a1, a1, 208
	vs8r.v	v16, (a1)                       # Unknown-size Folded Spill
	csrr	a1, vlenb
	li	a2, 593
	mul	a1, a1, a2
	add	a1, sp, a1
	addi	a1, a1, 208
	vs8r.v	v16, (a1)                       # Unknown-size Folded Spill
	csrr	a1, vlenb
	li	a2, 609
	mul	a1, a1, a2
	add	a1, sp, a1
	addi	a1, a1, 208
	vs8r.v	v16, (a1)                       # Unknown-size Folded Spill
	csrr	a1, vlenb
	li	a2, 625
	mul	a1, a1, a2
	add	a1, sp, a1
	addi	a1, a1, 208
	vs8r.v	v16, (a1)                       # Unknown-size Folded Spill
	csrr	a1, vlenb
	li	a2, 641
	mul	a1, a1, a2
	add	a1, sp, a1
	addi	a1, a1, 208
	vs8r.v	v16, (a1)                       # Unknown-size Folded Spill
	csrr	a1, vlenb
	li	a2, 657
	mul	a1, a1, a2
	add	a1, sp, a1
	addi	a1, a1, 208
	vs8r.v	v16, (a1)                       # Unknown-size Folded Spill
	csrr	a1, vlenb
	li	a2, 673
	mul	a1, a1, a2
	add	a1, sp, a1
	addi	a1, a1, 208
	vs8r.v	v16, (a1)                       # Unknown-size Folded Spill
	csrr	a1, vlenb
	li	a2, 689
	mul	a1, a1, a2
	add	a1, sp, a1
	addi	a1, a1, 208
	vs8r.v	v16, (a1)                       # Unknown-size Folded Spill
	csrr	a1, vlenb
	li	a2, 705
	mul	a1, a1, a2
	add	a1, sp, a1
	addi	a1, a1, 208
	vs8r.v	v16, (a1)                       # Unknown-size Folded Spill
	csrr	a1, vlenb
	li	a2, 721
	mul	a1, a1, a2
	add	a1, sp, a1
	addi	a1, a1, 208
	vs8r.v	v16, (a1)                       # Unknown-size Folded Spill
	csrr	a1, vlenb
	li	a2, 737
	mul	a1, a1, a2
	add	a1, sp, a1
	addi	a1, a1, 208
	vs8r.v	v16, (a1)                       # Unknown-size Folded Spill
	csrr	a1, vlenb
	li	a2, 753
	mul	a1, a1, a2
	add	a1, sp, a1
	addi	a1, a1, 208
	vs8r.v	v16, (a1)                       # Unknown-size Folded Spill
	csrr	a1, vlenb
	li	a2, 761
	mul	a1, a1, a2
	add	a1, sp, a1
	addi	a1, a1, 208
	vs8r.v	v16, (a1)                       # Unknown-size Folded Spill
	csrr	a1, vlenb
	li	a2, 777
	mul	a1, a1, a2
	add	a1, sp, a1
	addi	a1, a1, 208
	vs8r.v	v16, (a1)                       # Unknown-size Folded Spill
	csrr	a1, vlenb
	li	a2, 793
	mul	a1, a1, a2
	add	a1, sp, a1
	addi	a1, a1, 208
	vs8r.v	v16, (a1)                       # Unknown-size Folded Spill
	csrr	a1, vlenb
	li	a2, 809
	mul	a1, a1, a2
	add	a1, sp, a1
	addi	a1, a1, 208
	vs8r.v	v16, (a1)                       # Unknown-size Folded Spill
	vmv1r.v	v24, v9
	csrr	a1, vlenb
	li	a2, 265
	mul	a1, a1, a2
	add	a1, sp, a1
	addi	a1, a1, 208
	vs8r.v	v16, (a1)                       # Unknown-size Folded Spill
	csrr	a1, vlenb
	li	a2, 281
	mul	a1, a1, a2
	add	a1, sp, a1
	addi	a1, a1, 208
	vs8r.v	v16, (a1)                       # Unknown-size Folded Spill
	csrr	a1, vlenb
	li	a2, 297
	mul	a1, a1, a2
	add	a1, sp, a1
	addi	a1, a1, 208
	vs8r.v	v16, (a1)                       # Unknown-size Folded Spill
	csrr	a1, vlenb
	li	a2, 313
	mul	a1, a1, a2
	add	a1, sp, a1
	addi	a1, a1, 208
	vs8r.v	v16, (a1)                       # Unknown-size Folded Spill
	csrr	a1, vlenb
	li	a2, 329
	mul	a1, a1, a2
	add	a1, sp, a1
	addi	a1, a1, 208
	vs8r.v	v16, (a1)                       # Unknown-size Folded Spill
	csrr	a1, vlenb
	li	a2, 345
	mul	a1, a1, a2
	add	a1, sp, a1
	addi	a1, a1, 208
	vs8r.v	v16, (a1)                       # Unknown-size Folded Spill
	csrr	a1, vlenb
	li	a2, 361
	mul	a1, a1, a2
	add	a1, sp, a1
	addi	a1, a1, 208
	vs8r.v	v16, (a1)                       # Unknown-size Folded Spill
	csrr	a1, vlenb
	li	a2, 377
	mul	a1, a1, a2
	add	a1, sp, a1
	addi	a1, a1, 208
	vs8r.v	v16, (a1)                       # Unknown-size Folded Spill
	csrr	a1, vlenb
	li	a2, 393
	mul	a1, a1, a2
	add	a1, sp, a1
	addi	a1, a1, 208
	vs8r.v	v16, (a1)                       # Unknown-size Folded Spill
	csrr	a1, vlenb
	li	a2, 409
	mul	a1, a1, a2
	add	a1, sp, a1
	addi	a1, a1, 208
	vs8r.v	v16, (a1)                       # Unknown-size Folded Spill
	csrr	a1, vlenb
	li	a2, 425
	mul	a1, a1, a2
	add	a1, sp, a1
	addi	a1, a1, 208
	vs8r.v	v16, (a1)                       # Unknown-size Folded Spill
	csrr	a1, vlenb
	li	a2, 441
	mul	a1, a1, a2
	add	a1, sp, a1
	addi	a1, a1, 208
	vs8r.v	v16, (a1)                       # Unknown-size Folded Spill
	csrr	a1, vlenb
	li	a2, 457
	mul	a1, a1, a2
	add	a1, sp, a1
	addi	a1, a1, 208
	vs8r.v	v16, (a1)                       # Unknown-size Folded Spill
	csrr	a1, vlenb
	li	a2, 473
	mul	a1, a1, a2
	add	a1, sp, a1
	addi	a1, a1, 208
	vs8r.v	v16, (a1)                       # Unknown-size Folded Spill
	csrr	a1, vlenb
	li	a2, 489
	mul	a1, a1, a2
	add	a1, sp, a1
	addi	a1, a1, 208
	vs8r.v	v16, (a1)                       # Unknown-size Folded Spill
	csrr	a1, vlenb
	li	a2, 505
	mul	a1, a1, a2
	add	a1, sp, a1
	addi	a1, a1, 208
	vs8r.v	v16, (a1)                       # Unknown-size Folded Spill
	csrr	a1, vlenb
	li	a2, 521
	mul	a1, a1, a2
	add	a1, sp, a1
	addi	a1, a1, 208
	vs8r.v	v16, (a1)                       # Unknown-size Folded Spill
	csrr	a1, vlenb
	li	a2, 537
	mul	a1, a1, a2
	add	a1, sp, a1
	addi	a1, a1, 208
	vs8r.v	v16, (a1)                       # Unknown-size Folded Spill
	csrr	a1, vlenb
	li	a2, 553
	mul	a1, a1, a2
	add	a1, sp, a1
	addi	a1, a1, 208
	vs8r.v	v16, (a1)                       # Unknown-size Folded Spill
	csrr	a1, vlenb
	li	a2, 569
	mul	a1, a1, a2
	add	a1, sp, a1
	addi	a1, a1, 208
	vs8r.v	v16, (a1)                       # Unknown-size Folded Spill
	csrr	a1, vlenb
	li	a2, 585
	mul	a1, a1, a2
	add	a1, sp, a1
	addi	a1, a1, 208
	vs8r.v	v16, (a1)                       # Unknown-size Folded Spill
	csrr	a1, vlenb
	li	a2, 601
	mul	a1, a1, a2
	add	a1, sp, a1
	addi	a1, a1, 208
	vs8r.v	v16, (a1)                       # Unknown-size Folded Spill
	csrr	a1, vlenb
	li	a2, 617
	mul	a1, a1, a2
	add	a1, sp, a1
	addi	a1, a1, 208
	vs8r.v	v16, (a1)                       # Unknown-size Folded Spill
	csrr	a1, vlenb
	li	a2, 633
	mul	a1, a1, a2
	add	a1, sp, a1
	addi	a1, a1, 208
	vs8r.v	v16, (a1)                       # Unknown-size Folded Spill
	csrr	a1, vlenb
	li	a2, 649
	mul	a1, a1, a2
	add	a1, sp, a1
	addi	a1, a1, 208
	vs8r.v	v16, (a1)                       # Unknown-size Folded Spill
	csrr	a1, vlenb
	li	a2, 665
	mul	a1, a1, a2
	add	a1, sp, a1
	addi	a1, a1, 208
	vs8r.v	v16, (a1)                       # Unknown-size Folded Spill
	csrr	a1, vlenb
	li	a2, 681
	mul	a1, a1, a2
	add	a1, sp, a1
	addi	a1, a1, 208
	vs8r.v	v16, (a1)                       # Unknown-size Folded Spill
	csrr	a1, vlenb
	li	a2, 697
	mul	a1, a1, a2
	add	a1, sp, a1
	addi	a1, a1, 208
	vs8r.v	v16, (a1)                       # Unknown-size Folded Spill
	csrr	a1, vlenb
	li	a2, 713
	mul	a1, a1, a2
	add	a1, sp, a1
	addi	a1, a1, 208
	vs8r.v	v16, (a1)                       # Unknown-size Folded Spill
	csrr	a1, vlenb
	li	a2, 729
	mul	a1, a1, a2
	add	a1, sp, a1
	addi	a1, a1, 208
	vs8r.v	v16, (a1)                       # Unknown-size Folded Spill
	csrr	a1, vlenb
	li	a2, 745
	mul	a1, a1, a2
	add	a1, sp, a1
	addi	a1, a1, 208
	vs8r.v	v16, (a1)                       # Unknown-size Folded Spill
	csrr	a1, vlenb
	li	a2, 769
	mul	a1, a1, a2
	add	a1, sp, a1
	addi	a1, a1, 208
	vs8r.v	v16, (a1)                       # Unknown-size Folded Spill
	csrr	a1, vlenb
	li	a2, 785
	mul	a1, a1, a2
	add	a1, sp, a1
	addi	a1, a1, 208
	vs8r.v	v16, (a1)                       # Unknown-size Folded Spill
	csrr	a1, vlenb
	li	a2, 801
	mul	a1, a1, a2
	add	a1, sp, a1
	addi	a1, a1, 208
	vs8r.v	v16, (a1)                       # Unknown-size Folded Spill
	csrr	a1, vlenb
	li	a2, 817
	mul	a1, a1, a2
	add	a1, sp, a1
	addi	a1, a1, 208
	vs8r.v	v16, (a1)                       # Unknown-size Folded Spill
	csrr	a1, vlenb
	li	a2, 825
	mul	a1, a1, a2
	add	a1, sp, a1
	addi	a1, a1, 208
	vs8r.v	v16, (a1)                       # Unknown-size Folded Spill
	csrr	a1, vlenb
	li	a2, 833
	mul	a1, a1, a2
	add	a1, sp, a1
	addi	a1, a1, 208
	vs8r.v	v16, (a1)                       # Unknown-size Folded Spill
	csrr	a1, vlenb
	li	a2, 841
	mul	a1, a1, a2
	add	a1, sp, a1
	addi	a1, a1, 208
	vs8r.v	v16, (a1)                       # Unknown-size Folded Spill
	csrr	a1, vlenb
	li	a2, 849
	mul	a1, a1, a2
	add	a1, sp, a1
	addi	a1, a1, 208
	vs8r.v	v16, (a1)                       # Unknown-size Folded Spill
	csrr	a1, vlenb
	li	a2, 857
	mul	a1, a1, a2
	add	a1, sp, a1
	addi	a1, a1, 208
	vs8r.v	v16, (a1)                       # Unknown-size Folded Spill
	csrr	a1, vlenb
	li	a2, 865
	mul	a1, a1, a2
	add	a1, sp, a1
	addi	a1, a1, 208
	vs8r.v	v16, (a1)                       # Unknown-size Folded Spill
	csrr	a1, vlenb
	li	a2, 873
	mul	a1, a1, a2
	add	a1, sp, a1
	addi	a1, a1, 208
	vs8r.v	v16, (a1)                       # Unknown-size Folded Spill
	csrr	a1, vlenb
	li	a2, 881
	mul	a1, a1, a2
	add	a1, sp, a1
	addi	a1, a1, 208
	vs8r.v	v16, (a1)                       # Unknown-size Folded Spill
	csrr	a1, vlenb
	li	a2, 889
	mul	a1, a1, a2
	add	a1, sp, a1
	addi	a1, a1, 208
	vs8r.v	v16, (a1)                       # Unknown-size Folded Spill
	csrr	a1, vlenb
	li	a2, 897
	mul	a1, a1, a2
	add	a1, sp, a1
	addi	a1, a1, 208
	vs8r.v	v16, (a1)                       # Unknown-size Folded Spill
	csrr	a1, vlenb
	li	a2, 913
	mul	a1, a1, a2
	add	a1, sp, a1
	addi	a1, a1, 208
	vs8r.v	v16, (a1)                       # Unknown-size Folded Spill
	csrr	a1, vlenb
	li	a2, 929
	mul	a1, a1, a2
	add	a1, sp, a1
	addi	a1, a1, 208
	vs8r.v	v16, (a1)                       # Unknown-size Folded Spill
	csrr	a1, vlenb
	li	a2, 945
	mul	a1, a1, a2
	add	a1, sp, a1
	addi	a1, a1, 208
	vs8r.v	v16, (a1)                       # Unknown-size Folded Spill
	csrr	a1, vlenb
	li	a2, 961
	mul	a1, a1, a2
	add	a1, sp, a1
	addi	a1, a1, 208
	vs8r.v	v16, (a1)                       # Unknown-size Folded Spill
	csrr	a1, vlenb
	li	a2, 977
	mul	a1, a1, a2
	add	a1, sp, a1
	addi	a1, a1, 208
	vs8r.v	v16, (a1)                       # Unknown-size Folded Spill
	csrr	a1, vlenb
	li	a2, 993
	mul	a1, a1, a2
	add	a1, sp, a1
	addi	a1, a1, 208
	vs8r.v	v16, (a1)                       # Unknown-size Folded Spill
	csrr	a1, vlenb
	li	a2, 1009
	mul	a1, a1, a2
	add	a1, sp, a1
	addi	a1, a1, 208
	vs8r.v	v16, (a1)                       # Unknown-size Folded Spill
	csrr	a1, vlenb
	li	a2, 1017
	mul	a1, a1, a2
	add	a1, sp, a1
	addi	a1, a1, 208
	vs8r.v	v16, (a1)                       # Unknown-size Folded Spill
	csrr	a1, vlenb
	li	a2, 1033
	mul	a1, a1, a2
	add	a1, sp, a1
	addi	a1, a1, 208
	vs8r.v	v16, (a1)                       # Unknown-size Folded Spill
	csrr	a1, vlenb
	li	a2, 1049
	mul	a1, a1, a2
	add	a1, sp, a1
	addi	a1, a1, 208
	vs8r.v	v16, (a1)                       # Unknown-size Folded Spill
	csrr	a1, vlenb
	li	a2, 1065
	mul	a1, a1, a2
	add	a1, sp, a1
	addi	a1, a1, 208
	vs8r.v	v16, (a1)                       # Unknown-size Folded Spill
	csrr	a1, vlenb
	li	a2, 1081
	mul	a1, a1, a2
	add	a1, sp, a1
	addi	a1, a1, 208
	vs8r.v	v16, (a1)                       # Unknown-size Folded Spill
	csrr	a1, vlenb
	li	a2, 1097
	mul	a1, a1, a2
	add	a1, sp, a1
	addi	a1, a1, 208
	vs8r.v	v16, (a1)                       # Unknown-size Folded Spill
	csrr	a1, vlenb
	li	a2, 1113
	mul	a1, a1, a2
	add	a1, sp, a1
	addi	a1, a1, 208
	vs8r.v	v16, (a1)                       # Unknown-size Folded Spill
	csrr	a1, vlenb
	li	a2, 1129
	mul	a1, a1, a2
	add	a1, sp, a1
	addi	a1, a1, 208
	vs8r.v	v16, (a1)                       # Unknown-size Folded Spill
	csrr	a1, vlenb
	li	a2, 1145
	mul	a1, a1, a2
	add	a1, sp, a1
	addi	a1, a1, 208
	vs8r.v	v16, (a1)                       # Unknown-size Folded Spill
	csrr	a1, vlenb
	li	a2, 1161
	mul	a1, a1, a2
	add	a1, sp, a1
	addi	a1, a1, 208
	vs8r.v	v16, (a1)                       # Unknown-size Folded Spill
	csrr	a1, vlenb
	li	a2, 1185
	mul	a1, a1, a2
	add	a1, sp, a1
	addi	a1, a1, 208
	vs8r.v	v16, (a1)                       # Unknown-size Folded Spill
	vmv1r.v	v0, v9
	csrr	a1, vlenb
	li	a2, 905
	mul	a1, a1, a2
	add	a1, sp, a1
	addi	a1, a1, 208
	vs8r.v	v0, (a1)                        # Unknown-size Folded Spill
	csrr	a1, vlenb
	li	a2, 921
	mul	a1, a1, a2
	add	a1, sp, a1
	addi	a1, a1, 208
	vs8r.v	v0, (a1)                        # Unknown-size Folded Spill
	csrr	a1, vlenb
	li	a2, 937
	mul	a1, a1, a2
	add	a1, sp, a1
	addi	a1, a1, 208
	vs8r.v	v0, (a1)                        # Unknown-size Folded Spill
	csrr	a1, vlenb
	li	a2, 953
	mul	a1, a1, a2
	add	a1, sp, a1
	addi	a1, a1, 208
	vs8r.v	v0, (a1)                        # Unknown-size Folded Spill
	csrr	a1, vlenb
	li	a2, 969
	mul	a1, a1, a2
	add	a1, sp, a1
	addi	a1, a1, 208
	vs8r.v	v0, (a1)                        # Unknown-size Folded Spill
	csrr	a1, vlenb
	li	a2, 985
	mul	a1, a1, a2
	add	a1, sp, a1
	addi	a1, a1, 208
	vs8r.v	v0, (a1)                        # Unknown-size Folded Spill
	csrr	a1, vlenb
	li	a2, 1001
	mul	a1, a1, a2
	add	a1, sp, a1
	addi	a1, a1, 208
	vs8r.v	v0, (a1)                        # Unknown-size Folded Spill
	csrr	a1, vlenb
	slli	a2, a1, 10
	add	a1, a2, a1
	add	a1, sp, a1
	addi	a1, a1, 208
	vs8r.v	v0, (a1)                        # Unknown-size Folded Spill
	csrr	a1, vlenb
	li	a2, 1041
	mul	a1, a1, a2
	add	a1, sp, a1
	addi	a1, a1, 208
	vs8r.v	v0, (a1)                        # Unknown-size Folded Spill
	csrr	a1, vlenb
	li	a2, 1057
	mul	a1, a1, a2
	add	a1, sp, a1
	addi	a1, a1, 208
	vs8r.v	v0, (a1)                        # Unknown-size Folded Spill
	csrr	a1, vlenb
	li	a2, 1073
	mul	a1, a1, a2
	add	a1, sp, a1
	addi	a1, a1, 208
	vs8r.v	v0, (a1)                        # Unknown-size Folded Spill
	csrr	a1, vlenb
	li	a2, 1089
	mul	a1, a1, a2
	add	a1, sp, a1
	addi	a1, a1, 208
	vs8r.v	v0, (a1)                        # Unknown-size Folded Spill
	csrr	a1, vlenb
	li	a2, 1105
	mul	a1, a1, a2
	add	a1, sp, a1
	addi	a1, a1, 208
	vs8r.v	v0, (a1)                        # Unknown-size Folded Spill
	csrr	a1, vlenb
	li	a2, 1121
	mul	a1, a1, a2
	add	a1, sp, a1
	addi	a1, a1, 208
	vs8r.v	v0, (a1)                        # Unknown-size Folded Spill
	csrr	a1, vlenb
	li	a2, 1137
	mul	a1, a1, a2
	add	a1, sp, a1
	addi	a1, a1, 208
	vs8r.v	v0, (a1)                        # Unknown-size Folded Spill
	csrr	a1, vlenb
	li	a2, 1153
	mul	a1, a1, a2
	add	a1, sp, a1
	addi	a1, a1, 208
	vs8r.v	v0, (a1)                        # Unknown-size Folded Spill
	csrr	a1, vlenb
	li	a2, 1169
	mul	a1, a1, a2
	add	a1, sp, a1
	addi	a1, a1, 208
	vs8r.v	v0, (a1)                        # Unknown-size Folded Spill
	csrr	a1, vlenb
	li	a2, 1177
	mul	a1, a1, a2
	add	a1, sp, a1
	addi	a1, a1, 208
	vs8r.v	v0, (a1)                        # Unknown-size Folded Spill
	csrr	a1, vlenb
	li	a2, 1201
	mul	a1, a1, a2
	add	a1, sp, a1
	addi	a1, a1, 208
	vs8r.v	v0, (a1)                        # Unknown-size Folded Spill
	csrr	a1, vlenb
	li	a2, 1193
	mul	a1, a1, a2
	add	a1, sp, a1
	addi	a1, a1, 208
	vs8r.v	v0, (a1)                        # Unknown-size Folded Spill
	csrr	a1, vlenb
	li	a2, 1217
	mul	a1, a1, a2
	add	a1, sp, a1
	addi	a1, a1, 208
	vs8r.v	v0, (a1)                        # Unknown-size Folded Spill
	csrr	a1, vlenb
	li	a2, 1209
	mul	a1, a1, a2
	add	a1, sp, a1
	addi	a1, a1, 208
	vs8r.v	v0, (a1)                        # Unknown-size Folded Spill
	csrr	a1, vlenb
	li	a2, 1233
	mul	a1, a1, a2
	add	a1, sp, a1
	addi	a1, a1, 208
	vs8r.v	v0, (a1)                        # Unknown-size Folded Spill
	csrr	a1, vlenb
	li	a2, 1225
	mul	a1, a1, a2
	add	a1, sp, a1
	addi	a1, a1, 208
	vs8r.v	v0, (a1)                        # Unknown-size Folded Spill
	csrr	a1, vlenb
	li	a2, 1249
	mul	a1, a1, a2
	add	a1, sp, a1
	addi	a1, a1, 208
	vs8r.v	v0, (a1)                        # Unknown-size Folded Spill
	csrr	a1, vlenb
	li	a2, 1241
	mul	a1, a1, a2
	add	a1, sp, a1
	addi	a1, a1, 208
	vs8r.v	v0, (a1)                        # Unknown-size Folded Spill
	csrr	a1, vlenb
	li	a2, 1265
	mul	a1, a1, a2
	add	a1, sp, a1
	addi	a1, a1, 208
	vs8r.v	v0, (a1)                        # Unknown-size Folded Spill
	csrr	a1, vlenb
	li	a2, 1257
	mul	a1, a1, a2
	add	a1, sp, a1
	addi	a1, a1, 208
	vs8r.v	v0, (a1)                        # Unknown-size Folded Spill
	csrr	a1, vlenb
	li	a2, 1281
	mul	a1, a1, a2
	add	a1, sp, a1
	addi	a1, a1, 208
	vs8r.v	v0, (a1)                        # Unknown-size Folded Spill
	csrr	a1, vlenb
	li	a2, 1273
	mul	a1, a1, a2
	add	a1, sp, a1
	addi	a1, a1, 208
	vs8r.v	v0, (a1)                        # Unknown-size Folded Spill
	csrr	a1, vlenb
	li	a2, 1289
.LBB0_15:                               #   Parent Loop BB0_2 Depth=1
                                        #     Parent Loop BB0_12 Depth=2
                                        # =>    This Inner Loop Header: Depth=3
	mul	a1, a1, a2
	add	a1, sp, a1
	addi	a1, a1, 208
	vs8r.v	v0, (a1)                        # 4294967294-byte Folded Spill
	ld	s5, 184(sp)                     # 8-byte Folded Reload
	blt	a0, s5, .LBB0_16
	j	.LBB0_10
.LBB0_16:                               #   in Loop: Header=BB0_15 Depth=3
	ld	s5, 176(sp)                     # 8-byte Folded Reload
	add	s5, a0, s5
	slli	s5, s5, 2
	ld	s6, 168(sp)                     # 8-byte Folded Reload
	add	s5, s6, s5
	flw	fa5, 0(s5)
	ld	s5, 160(sp)                     # 8-byte Folded Reload
	mul	s5, a0, s5
	sd	a0, 144(sp)                     # 8-byte Folded Spill
	ld	a0, 192(sp)                     # 8-byte Folded Reload
	add	s5, s5, a0
	slli	s5, s5, 2
	ld	s6, 152(sp)                     # 8-byte Folded Reload
	add	s5, s6, s5
	addi	s6, s5, 512
	li	a0, 32
	vsetvli	zero, a0, e32, m4, ta, ma
	addi	s7, s5, 256
	vle32.v	v0, (s6)
	csrr	a0, vlenb
	slli	a1, a0, 5
	add	a0, a1, a0
	add	a0, sp, a0
	addi	a0, a0, 208
	vs8r.v	v0, (a0)                        # Unknown-size Folded Spill
	li	a0, 64
	vsetvli	zero, a0, e32, m8, ta, ma
	vle32.v	v0, (s7)
	csrr	a0, vlenb
	li	a1, 25
	mul	a0, a0, a1
	add	a0, sp, a0
	addi	a0, a0, 208
	vs8r.v	v0, (a0)                        # Unknown-size Folded Spill
	vle32.v	v0, (s5)
	csrr	a0, vlenb
	slli	a1, a0, 4
	add	a0, a1, a0
	add	a0, sp, a0
	addi	a0, a0, 208
	vs8r.v	v0, (a0)                        # Unknown-size Folded Spill
	vsetivli	zero, 2, e32, m8, tu, ma
	csrr	a0, vlenb
	li	a1, 41
	mul	a0, a0, a1
	add	a0, sp, a0
	addi	a0, a0, 208
	vl8r.v	v0, (a0)                        # Unknown-size Folded Reload
	vslideup.vi	v8, v0, 1
	vsetivli	zero, 3, e32, m8, tu, ma
	csrr	a0, vlenb
	li	a1, 49
	mul	a0, a0, a1
	add	a0, sp, a0
	addi	a0, a0, 208
	vl8r.v	v0, (a0)                        # Unknown-size Folded Reload
	vslideup.vi	v8, v0, 2
	vsetivli	zero, 4, e32, m8, tu, ma
	csrr	a0, vlenb
	li	a1, 57
	mul	a0, a0, a1
	add	a0, sp, a0
	addi	a0, a0, 208
	vl8r.v	v0, (a0)                        # Unknown-size Folded Reload
	vslideup.vi	v8, v0, 3
	vsetivli	zero, 5, e32, m8, tu, ma
	csrr	a0, vlenb
	slli	a1, a0, 6
	add	a0, a1, a0
	add	a0, sp, a0
	addi	a0, a0, 208
	vl8r.v	v0, (a0)                        # Unknown-size Folded Reload
	vslideup.vi	v8, v0, 4
	vsetivli	zero, 6, e32, m8, tu, ma
	csrr	a0, vlenb
	li	a1, 73
	mul	a0, a0, a1
	add	a0, sp, a0
	addi	a0, a0, 208
	vl8r.v	v0, (a0)                        # Unknown-size Folded Reload
	vslideup.vi	v8, v0, 5
	vsetivli	zero, 7, e32, m8, tu, ma
	csrr	a0, vlenb
	li	a1, 81
	mul	a0, a0, a1
	add	a0, sp, a0
	addi	a0, a0, 208
	vl8r.v	v0, (a0)                        # Unknown-size Folded Reload
	vslideup.vi	v8, v0, 6
	vsetivli	zero, 8, e32, m8, tu, ma
	csrr	a0, vlenb
	li	a1, 89
	mul	a0, a0, a1
	add	a0, sp, a0
	addi	a0, a0, 208
	vl8r.v	v0, (a0)                        # Unknown-size Folded Reload
	vslideup.vi	v8, v0, 7
	vsetivli	zero, 9, e32, m8, tu, ma
	csrr	a0, vlenb
	li	a1, 97
	mul	a0, a0, a1
	add	a0, sp, a0
	addi	a0, a0, 208
	vl8r.v	v0, (a0)                        # Unknown-size Folded Reload
	vslideup.vi	v8, v0, 8
	vsetivli	zero, 10, e32, m8, tu, ma
	csrr	a0, vlenb
	li	a1, 105
	mul	a0, a0, a1
	add	a0, sp, a0
	addi	a0, a0, 208
	vl8r.v	v0, (a0)                        # Unknown-size Folded Reload
	vslideup.vi	v8, v0, 9
	vsetivli	zero, 11, e32, m8, tu, ma
	csrr	a0, vlenb
	li	a1, 113
	mul	a0, a0, a1
	add	a0, sp, a0
	addi	a0, a0, 208
	vl8r.v	v0, (a0)                        # Unknown-size Folded Reload
	vslideup.vi	v8, v0, 10
	vsetivli	zero, 12, e32, m8, tu, ma
	csrr	a0, vlenb
	li	a1, 121
	mul	a0, a0, a1
	add	a0, sp, a0
	addi	a0, a0, 208
	vl8r.v	v0, (a0)                        # Unknown-size Folded Reload
	vslideup.vi	v8, v0, 11
	vsetivli	zero, 13, e32, m8, tu, ma
	csrr	a0, vlenb
	slli	a1, a0, 7
	add	a0, a1, a0
	add	a0, sp, a0
	addi	a0, a0, 208
	vl8r.v	v0, (a0)                        # Unknown-size Folded Reload
	vslideup.vi	v8, v0, 12
	vsetivli	zero, 14, e32, m8, tu, ma
	csrr	a0, vlenb
	li	a1, 137
	mul	a0, a0, a1
	add	a0, sp, a0
	addi	a0, a0, 208
	vl8r.v	v0, (a0)                        # Unknown-size Folded Reload
	vslideup.vi	v8, v0, 13
	vsetivli	zero, 15, e32, m8, tu, ma
	csrr	a0, vlenb
	li	a1, 145
	mul	a0, a0, a1
	add	a0, sp, a0
	addi	a0, a0, 208
	vl8r.v	v0, (a0)                        # Unknown-size Folded Reload
	vslideup.vi	v8, v0, 14
	vsetivli	zero, 16, e32, m8, tu, ma
	csrr	a0, vlenb
	li	a1, 153
	mul	a0, a0, a1
	add	a0, sp, a0
	addi	a0, a0, 208
	vl8r.v	v0, (a0)                        # Unknown-size Folded Reload
	vslideup.vi	v8, v0, 15
	vsetivli	zero, 17, e32, m8, tu, ma
	csrr	a0, vlenb
	li	a1, 161
	mul	a0, a0, a1
	add	a0, sp, a0
	addi	a0, a0, 208
	vl8r.v	v0, (a0)                        # Unknown-size Folded Reload
	vslideup.vi	v8, v0, 16
	vsetivli	zero, 18, e32, m8, tu, ma
	csrr	a0, vlenb
	li	a1, 169
	mul	a0, a0, a1
	add	a0, sp, a0
	addi	a0, a0, 208
	vl8r.v	v0, (a0)                        # Unknown-size Folded Reload
	vslideup.vi	v8, v0, 17
	vsetivli	zero, 19, e32, m8, tu, ma
	csrr	a0, vlenb
	li	a1, 177
	mul	a0, a0, a1
	add	a0, sp, a0
	addi	a0, a0, 208
	vl8r.v	v0, (a0)                        # Unknown-size Folded Reload
	vslideup.vi	v8, v0, 18
	vsetivli	zero, 20, e32, m8, tu, ma
	csrr	a0, vlenb
	li	a1, 185
	mul	a0, a0, a1
	add	a0, sp, a0
	addi	a0, a0, 208
	vl8r.v	v0, (a0)                        # Unknown-size Folded Reload
	vslideup.vi	v8, v0, 19
	vsetivli	zero, 21, e32, m8, tu, ma
	csrr	a0, vlenb
	li	a1, 193
	mul	a0, a0, a1
	add	a0, sp, a0
	addi	a0, a0, 208
	vl8r.v	v0, (a0)                        # Unknown-size Folded Reload
	vslideup.vi	v8, v0, 20
	vsetivli	zero, 22, e32, m8, tu, ma
	csrr	a0, vlenb
	li	a1, 201
	mul	a0, a0, a1
	add	a0, sp, a0
	addi	a0, a0, 208
	vl8r.v	v0, (a0)                        # Unknown-size Folded Reload
	vslideup.vi	v8, v0, 21
	vsetivli	zero, 23, e32, m8, tu, ma
	csrr	a0, vlenb
	li	a1, 209
	mul	a0, a0, a1
	add	a0, sp, a0
	addi	a0, a0, 208
	vl8r.v	v0, (a0)                        # Unknown-size Folded Reload
	vslideup.vi	v8, v0, 22
	vsetivli	zero, 24, e32, m8, tu, ma
	csrr	a0, vlenb
	li	a1, 217
	mul	a0, a0, a1
	add	a0, sp, a0
	addi	a0, a0, 208
	vl8r.v	v0, (a0)                        # Unknown-size Folded Reload
	vslideup.vi	v8, v0, 23
	vsetivli	zero, 25, e32, m8, tu, ma
	csrr	a0, vlenb
	li	a1, 225
	mul	a0, a0, a1
	add	a0, sp, a0
	addi	a0, a0, 208
	vl8r.v	v0, (a0)                        # Unknown-size Folded Reload
	vslideup.vi	v8, v0, 24
	vsetivli	zero, 26, e32, m8, tu, ma
	csrr	a0, vlenb
	li	a1, 233
	mul	a0, a0, a1
	add	a0, sp, a0
	addi	a0, a0, 208
	vl8r.v	v0, (a0)                        # Unknown-size Folded Reload
	vslideup.vi	v8, v0, 25
	vsetivli	zero, 27, e32, m8, tu, ma
	csrr	a0, vlenb
	li	a1, 241
	mul	a0, a0, a1
	add	a0, sp, a0
	addi	a0, a0, 208
	vl8r.v	v0, (a0)                        # Unknown-size Folded Reload
	vslideup.vi	v8, v0, 26
	vsetivli	zero, 28, e32, m8, tu, ma
	csrr	a0, vlenb
	li	a1, 249
	mul	a0, a0, a1
	add	a0, sp, a0
	addi	a0, a0, 208
	vl8r.v	v0, (a0)                        # Unknown-size Folded Reload
	vslideup.vi	v8, v0, 27
	vsetivli	zero, 29, e32, m8, tu, ma
	csrr	a0, vlenb
	slli	a1, a0, 8
	add	a0, a1, a0
	add	a0, sp, a0
	addi	a0, a0, 208
	vl8r.v	v0, (a0)                        # Unknown-size Folded Reload
	vslideup.vi	v8, v0, 28
	vsetivli	zero, 30, e32, m8, tu, ma
	csrr	a0, vlenb
	li	a1, 273
	mul	a0, a0, a1
	add	a0, sp, a0
	addi	a0, a0, 208
	vl8r.v	v0, (a0)                        # Unknown-size Folded Reload
	vslideup.vi	v8, v0, 29
	vsetivli	zero, 31, e32, m8, tu, ma
	csrr	a0, vlenb
	li	a1, 289
	mul	a0, a0, a1
	add	a0, sp, a0
	addi	a0, a0, 208
	vl8r.v	v0, (a0)                        # Unknown-size Folded Reload
	vslideup.vi	v8, v0, 30
	li	a0, 32
	vsetvli	zero, a0, e32, m8, tu, ma
	csrr	a1, vlenb
	li	a2, 305
	mul	a1, a1, a2
	add	a1, sp, a1
	addi	a1, a1, 208
	vl8r.v	v0, (a1)                        # Unknown-size Folded Reload
	vslideup.vi	v8, v0, 31
	li	a1, 33
	vsetvli	zero, a1, e32, m8, tu, ma
	li	a1, 33
	csrr	a2, vlenb
	li	a3, 321
	mul	a2, a2, a3
	add	a2, sp, a2
	addi	a2, a2, 208
	vl8r.v	v0, (a2)                        # Unknown-size Folded Reload
	vslideup.vx	v8, v0, a0
	li	a0, 34
	vsetvli	zero, a0, e32, m8, tu, ma
	li	a0, 34
	csrr	a2, vlenb
	li	a3, 337
	mul	a2, a2, a3
	add	a2, sp, a2
	addi	a2, a2, 208
	vl8r.v	v0, (a2)                        # Unknown-size Folded Reload
	vslideup.vx	v8, v0, a1
	li	a1, 35
	vsetvli	zero, a1, e32, m8, tu, ma
	li	a1, 35
	csrr	a2, vlenb
	li	a3, 353
	mul	a2, a2, a3
	add	a2, sp, a2
	addi	a2, a2, 208
	vl8r.v	v0, (a2)                        # Unknown-size Folded Reload
	vslideup.vx	v8, v0, a0
	li	a2, 36
	vsetvli	zero, a2, e32, m8, tu, ma
	li	a2, 36
	csrr	a0, vlenb
	li	a3, 369
	mul	a0, a0, a3
	add	a0, sp, a0
	addi	a0, a0, 208
	vl8r.v	v0, (a0)                        # Unknown-size Folded Reload
	vslideup.vx	v8, v0, a1
	li	a1, 37
	vsetvli	zero, a1, e32, m8, tu, ma
	li	a1, 37
	csrr	a0, vlenb
	li	a3, 385
	mul	a0, a0, a3
	add	a0, sp, a0
	addi	a0, a0, 208
	vl8r.v	v0, (a0)                        # Unknown-size Folded Reload
	vslideup.vx	v8, v0, a2
	li	a2, 38
	vsetvli	zero, a2, e32, m8, tu, ma
	li	a2, 38
	csrr	a0, vlenb
	li	a3, 401
	mul	a0, a0, a3
	add	a0, sp, a0
	addi	a0, a0, 208
	vl8r.v	v0, (a0)                        # Unknown-size Folded Reload
	vslideup.vx	v8, v0, a1
	li	a1, 37
	li	a3, 39
	vsetvli	zero, a3, e32, m8, tu, ma
	li	a3, 39
	sd	a1, 8(sp)
	csrr	a0, vlenb
	li	a1, 417
	mul	a0, a0, a1
	add	a0, sp, a0
	addi	a0, a0, 208
	vl8r.v	v0, (a0)                        # Unknown-size Folded Reload
	vslideup.vx	v8, v0, a2
	li	a2, 38
	li	a0, 40
	vsetvli	zero, a0, e32, m8, tu, ma
	li	a4, 40
	csrr	a0, vlenb
	li	a1, 433
	mul	a0, a0, a1
	add	a0, sp, a0
	addi	a0, a0, 208
	vl8r.v	v0, (a0)                        # Unknown-size Folded Reload
	vslideup.vx	v8, v0, a3
	li	a0, 39
	li	s9, 41
	vsetvli	zero, s9, e32, m8, tu, ma
	csrr	a1, vlenb
	li	a3, 449
	mul	a1, a1, a3
	add	a1, sp, a1
	addi	a1, a1, 208
	vl8r.v	v0, (a1)                        # Unknown-size Folded Reload
	vslideup.vx	v8, v0, a4
	li	t3, 40
	li	s7, 42
	vsetvli	zero, s7, e32, m8, tu, ma
	csrr	a1, vlenb
	li	a3, 465
	mul	a1, a1, a3
	add	a1, sp, a1
	addi	a1, a1, 208
	vl8r.v	v0, (a1)                        # Unknown-size Folded Reload
	vslideup.vx	v8, v0, s9
	li	s6, 43
	vsetvli	zero, s6, e32, m8, tu, ma
	csrr	a1, vlenb
	li	a3, 481
	mul	a1, a1, a3
	add	a1, sp, a1
	addi	a1, a1, 208
	vl8r.v	v0, (a1)                        # Unknown-size Folded Reload
	vslideup.vx	v8, v0, s7
	li	s5, 44
	vsetvli	zero, s5, e32, m8, tu, ma
	csrr	a1, vlenb
	li	a3, 497
	mul	a1, a1, a3
	add	a1, sp, a1
	addi	a1, a1, 208
	vl8r.v	v0, (a1)                        # Unknown-size Folded Reload
	vslideup.vx	v8, v0, s6
	li	t4, 45
	vsetvli	zero, t4, e32, m8, tu, ma
	csrr	a1, vlenb
	slli	a3, a1, 9
	add	a1, a3, a1
	add	a1, sp, a1
	addi	a1, a1, 208
	vl8r.v	v0, (a1)                        # Unknown-size Folded Reload
	vslideup.vx	v8, v0, s5
	li	s10, 46
	vsetvli	zero, s10, e32, m8, tu, ma
	csrr	a1, vlenb
	li	a3, 529
	mul	a1, a1, a3
	add	a1, sp, a1
	addi	a1, a1, 208
	vl8r.v	v0, (a1)                        # Unknown-size Folded Reload
	vslideup.vx	v8, v0, t4
	li	s11, 47
	vsetvli	zero, s11, e32, m8, tu, ma
	csrr	a1, vlenb
	li	a3, 545
	mul	a1, a1, a3
	add	a1, sp, a1
	addi	a1, a1, 208
	vl8r.v	v0, (a1)                        # Unknown-size Folded Reload
	vslideup.vx	v8, v0, s10
	li	ra, 48
	vsetvli	zero, ra, e32, m8, tu, ma
	csrr	a1, vlenb
	li	a3, 561
	mul	a1, a1, a3
	add	a1, sp, a1
	addi	a1, a1, 208
	vl8r.v	v0, (a1)                        # Unknown-size Folded Reload
	vslideup.vx	v8, v0, s11
	li	t2, 49
	vsetvli	zero, t2, e32, m8, tu, ma
	csrr	a1, vlenb
	li	a3, 577
	mul	a1, a1, a3
	add	a1, sp, a1
	addi	a1, a1, 208
	vl8r.v	v0, (a1)                        # Unknown-size Folded Reload
	vslideup.vx	v8, v0, ra
	li	t1, 50
	vsetvli	zero, t1, e32, m8, tu, ma
	csrr	a1, vlenb
	li	a3, 593
	mul	a1, a1, a3
	add	a1, sp, a1
	addi	a1, a1, 208
	vl8r.v	v0, (a1)                        # Unknown-size Folded Reload
	vslideup.vx	v8, v0, t2
	li	t0, 51
	vsetvli	zero, t0, e32, m8, tu, ma
	csrr	a1, vlenb
	li	a3, 609
	mul	a1, a1, a3
	add	a1, sp, a1
	addi	a1, a1, 208
	vl8r.v	v0, (a1)                        # Unknown-size Folded Reload
	vslideup.vx	v8, v0, t1
	li	a7, 52
	vsetvli	zero, a7, e32, m8, tu, ma
	csrr	a1, vlenb
	li	a3, 625
	mul	a1, a1, a3
	add	a1, sp, a1
	addi	a1, a1, 208
	vl8r.v	v0, (a1)                        # Unknown-size Folded Reload
	vslideup.vx	v8, v0, t0
	li	t6, 53
	vsetvli	zero, t6, e32, m8, tu, ma
	csrr	a1, vlenb
	li	a3, 641
	mul	a1, a1, a3
	add	a1, sp, a1
	addi	a1, a1, 208
	vl8r.v	v0, (a1)                        # Unknown-size Folded Reload
	vslideup.vx	v8, v0, a7
	li	s0, 54
	vsetvli	zero, s0, e32, m8, tu, ma
	csrr	a1, vlenb
	li	a3, 657
	mul	a1, a1, a3
	add	a1, sp, a1
	addi	a1, a1, 208
	vl8r.v	v0, (a1)                        # Unknown-size Folded Reload
	vslideup.vx	v8, v0, t6
	li	s1, 55
	vsetvli	zero, s1, e32, m8, tu, ma
	csrr	a1, vlenb
	li	a3, 673
	mul	a1, a1, a3
	add	a1, sp, a1
	addi	a1, a1, 208
	vl8r.v	v0, (a1)                        # Unknown-size Folded Reload
	vslideup.vx	v8, v0, s0
	li	s2, 56
	vsetvli	zero, s2, e32, m8, tu, ma
	csrr	a1, vlenb
	li	a3, 689
	mul	a1, a1, a3
	add	a1, sp, a1
	addi	a1, a1, 208
	vl8r.v	v0, (a1)                        # Unknown-size Folded Reload
	vslideup.vx	v8, v0, s1
	li	s3, 57
	vsetvli	zero, s3, e32, m8, tu, ma
	csrr	a1, vlenb
	li	a3, 705
	mul	a1, a1, a3
	add	a1, sp, a1
	addi	a1, a1, 208
	vl8r.v	v0, (a1)                        # Unknown-size Folded Reload
	vslideup.vx	v8, v0, s2
	li	s8, 58
	vsetvli	zero, s8, e32, m8, tu, ma
	csrr	a1, vlenb
	li	a3, 721
	mul	a1, a1, a3
	add	a1, sp, a1
	addi	a1, a1, 208
	vl8r.v	v0, (a1)                        # Unknown-size Folded Reload
	vslideup.vx	v8, v0, s3
	li	s4, 59
	vsetvli	zero, s4, e32, m8, tu, ma
	csrr	a1, vlenb
	li	a3, 737
	mul	a1, a1, a3
	add	a1, sp, a1
	addi	a1, a1, 208
	vl8r.v	v0, (a1)                        # Unknown-size Folded Reload
	vslideup.vx	v8, v0, s8
	li	a6, 60
	vsetvli	zero, a6, e32, m8, tu, ma
	csrr	a1, vlenb
	li	a3, 753
	mul	a1, a1, a3
	add	a1, sp, a1
	addi	a1, a1, 208
	vl8r.v	v0, (a1)                        # Unknown-size Folded Reload
	vslideup.vx	v8, v0, s4
	li	a5, 61
	vsetvli	zero, a5, e32, m8, tu, ma
	csrr	a1, vlenb
	li	a3, 761
	mul	a1, a1, a3
	add	a1, sp, a1
	addi	a1, a1, 208
	vl8r.v	v0, (a1)                        # Unknown-size Folded Reload
	vslideup.vx	v8, v0, a6
	li	a4, 62
	vsetvli	zero, a4, e32, m8, tu, ma
	csrr	a1, vlenb
	li	a3, 777
	mul	a1, a1, a3
	add	a1, sp, a1
	addi	a1, a1, 208
	vl8r.v	v0, (a1)                        # Unknown-size Folded Reload
	vslideup.vx	v8, v0, a5
	li	a3, 63
	vsetvli	zero, a3, e32, m8, tu, ma
	csrr	a1, vlenb
	li	t5, 793
	mul	a1, a1, t5
	add	a1, sp, a1
	addi	a1, a1, 208
	vl8r.v	v0, (a1)                        # Unknown-size Folded Reload
	vslideup.vx	v8, v0, a4
	li	t5, 64
	vsetvli	zero, t5, e32, m8, ta, ma
	csrr	a1, vlenb
	li	t5, 809
	mul	a1, a1, t5
	add	a1, sp, a1
	addi	a1, a1, 208
	vl8r.v	v0, (a1)                        # Unknown-size Folded Reload
	vslideup.vx	v8, v0, a3
	csrr	t5, vlenb
	slli	a1, t5, 4
	add	t5, a1, t5
	ld	a1, 8(sp)
	add	t5, sp, t5
	addi	t5, t5, 208
	vl8r.v	v0, (t5)                        # Unknown-size Folded Reload
	vfmacc.vf	v8, fa5, v0
	vsetivli	zero, 1, e32, m8, ta, ma
	vslidedown.vx	v0, v8, a3
	sd	a3, 8(sp)
	csrr	a3, vlenb
	li	t5, 809
	mul	a3, a3, t5
	add	a3, sp, a3
	addi	a3, a3, 208
	vs8r.v	v0, (a3)                        # Unknown-size Folded Spill
	vslidedown.vx	v0, v8, a4
	sd	a4, 0(sp)
	csrr	a3, vlenb
	li	a4, 793
	mul	a3, a3, a4
	add	a3, sp, a3
	addi	a3, a3, 208
	vs8r.v	v0, (a3)                        # Unknown-size Folded Spill
	vslidedown.vx	v0, v8, a5
	csrr	a3, vlenb
	li	a4, 777
	mul	a3, a3, a4
	add	a3, sp, a3
	addi	a3, a3, 208
	vs8r.v	v0, (a3)                        # Unknown-size Folded Spill
	vslidedown.vx	v0, v8, a6
	csrr	a3, vlenb
	li	a4, 761
	mul	a3, a3, a4
	add	a3, sp, a3
	addi	a3, a3, 208
	vs8r.v	v0, (a3)                        # Unknown-size Folded Spill
	vslidedown.vx	v0, v8, s4
	csrr	a3, vlenb
	li	a4, 753
	mul	a3, a3, a4
	add	a3, sp, a3
	addi	a3, a3, 208
	vs8r.v	v0, (a3)                        # Unknown-size Folded Spill
	vslidedown.vx	v0, v8, s8
	csrr	a3, vlenb
	li	a4, 737
	mul	a3, a3, a4
	add	a3, sp, a3
	addi	a3, a3, 208
	vs8r.v	v0, (a3)                        # Unknown-size Folded Spill
	vslidedown.vx	v0, v8, s3
	csrr	a3, vlenb
	li	a4, 721
	mul	a3, a3, a4
	add	a3, sp, a3
	addi	a3, a3, 208
	vs8r.v	v0, (a3)                        # Unknown-size Folded Spill
	vslidedown.vx	v0, v8, s2
	csrr	a3, vlenb
	li	a4, 705
	mul	a3, a3, a4
	add	a3, sp, a3
	addi	a3, a3, 208
	vs8r.v	v0, (a3)                        # Unknown-size Folded Spill
	vslidedown.vx	v0, v8, s1
	csrr	a3, vlenb
	li	a4, 689
	mul	a3, a3, a4
	add	a3, sp, a3
	addi	a3, a3, 208
	vs8r.v	v0, (a3)                        # Unknown-size Folded Spill
	vslidedown.vx	v0, v8, s0
	csrr	a3, vlenb
	li	a4, 673
	mul	a3, a3, a4
	add	a3, sp, a3
	addi	a3, a3, 208
	vs8r.v	v0, (a3)                        # Unknown-size Folded Spill
	vslidedown.vx	v0, v8, t6
	csrr	a3, vlenb
	li	a4, 657
	mul	a3, a3, a4
	add	a3, sp, a3
	addi	a3, a3, 208
	vs8r.v	v0, (a3)                        # Unknown-size Folded Spill
	vslidedown.vx	v0, v8, a7
	csrr	a3, vlenb
	li	a4, 641
	mul	a3, a3, a4
	add	a3, sp, a3
	addi	a3, a3, 208
	vs8r.v	v0, (a3)                        # Unknown-size Folded Spill
	vslidedown.vx	v0, v8, t0
	csrr	a3, vlenb
	li	a4, 625
	mul	a3, a3, a4
	add	a3, sp, a3
	addi	a3, a3, 208
	vs8r.v	v0, (a3)                        # Unknown-size Folded Spill
	vslidedown.vx	v0, v8, t1
	csrr	a3, vlenb
	li	a4, 609
	mul	a3, a3, a4
	add	a3, sp, a3
	addi	a3, a3, 208
	vs8r.v	v0, (a3)                        # Unknown-size Folded Spill
	vslidedown.vx	v0, v8, t2
	csrr	a3, vlenb
	li	a4, 593
	mul	a3, a3, a4
	add	a3, sp, a3
	addi	a3, a3, 208
	vs8r.v	v0, (a3)                        # Unknown-size Folded Spill
	vslidedown.vx	v0, v8, ra
	csrr	a3, vlenb
	li	a4, 577
	mul	a3, a3, a4
	add	a3, sp, a3
	addi	a3, a3, 208
	vs8r.v	v0, (a3)                        # Unknown-size Folded Spill
	vslidedown.vx	v0, v8, s11
	csrr	a3, vlenb
	li	a4, 561
	mul	a3, a3, a4
	add	a3, sp, a3
	addi	a3, a3, 208
	vs8r.v	v0, (a3)                        # Unknown-size Folded Spill
	vslidedown.vx	v0, v8, s10
	csrr	a3, vlenb
	li	a4, 545
	mul	a3, a3, a4
	add	a3, sp, a3
	addi	a3, a3, 208
	vs8r.v	v0, (a3)                        # Unknown-size Folded Spill
	vslidedown.vx	v0, v8, t4
	csrr	a3, vlenb
	li	a4, 529
	mul	a3, a3, a4
	add	a3, sp, a3
	addi	a3, a3, 208
	vs8r.v	v0, (a3)                        # Unknown-size Folded Spill
	vslidedown.vx	v0, v8, s5
	csrr	a3, vlenb
	slli	a4, a3, 9
	add	a3, a4, a3
	add	a3, sp, a3
	addi	a3, a3, 208
	vs8r.v	v0, (a3)                        # Unknown-size Folded Spill
	vslidedown.vx	v0, v8, s6
	csrr	a3, vlenb
	li	a4, 497
	mul	a3, a3, a4
	add	a3, sp, a3
	addi	a3, a3, 208
	vs8r.v	v0, (a3)                        # Unknown-size Folded Spill
	vslidedown.vx	v0, v8, s7
	csrr	a3, vlenb
	li	a4, 481
	mul	a3, a3, a4
	add	a3, sp, a3
	addi	a3, a3, 208
	vs8r.v	v0, (a3)                        # Unknown-size Folded Spill
	vslidedown.vx	v0, v8, s9
	csrr	a3, vlenb
	li	a4, 465
	mul	a3, a3, a4
	add	a3, sp, a3
	addi	a3, a3, 208
	vs8r.v	v0, (a3)                        # Unknown-size Folded Spill
	vslidedown.vx	v0, v8, t3
	csrr	a3, vlenb
	li	a4, 449
	mul	a3, a3, a4
	add	a3, sp, a3
	addi	a3, a3, 208
	vs8r.v	v0, (a3)                        # Unknown-size Folded Spill
	vslidedown.vx	v0, v8, a0
	csrr	a0, vlenb
	li	a3, 433
	mul	a0, a0, a3
	add	a0, sp, a0
	addi	a0, a0, 208
	vs8r.v	v0, (a0)                        # Unknown-size Folded Spill
	vslidedown.vx	v0, v8, a2
	csrr	a0, vlenb
	li	a2, 417
	mul	a0, a0, a2
	add	a0, sp, a0
	addi	a0, a0, 208
	vs8r.v	v0, (a0)                        # Unknown-size Folded Spill
	vslidedown.vx	v0, v8, a1
	csrr	a0, vlenb
	li	a1, 401
	mul	a0, a0, a1
	add	a0, sp, a0
	addi	a0, a0, 208
	vs8r.v	v0, (a0)                        # Unknown-size Folded Spill
	li	a2, 36
	vslidedown.vx	v0, v8, a2
	csrr	a0, vlenb
	li	a1, 385
	mul	a0, a0, a1
	add	a0, sp, a0
	addi	a0, a0, 208
	vs8r.v	v0, (a0)                        # Unknown-size Folded Spill
	li	a1, 35
	vslidedown.vx	v0, v8, a1
	csrr	a0, vlenb
	li	a3, 369
	mul	a0, a0, a3
	add	a0, sp, a0
	addi	a0, a0, 208
	vs8r.v	v0, (a0)                        # Unknown-size Folded Spill
	li	a0, 34
	vslidedown.vx	v0, v8, a0
	li	t3, 34
	csrr	a0, vlenb
	li	a3, 353
	mul	a0, a0, a3
	add	a0, sp, a0
	addi	a0, a0, 208
	vs8r.v	v0, (a0)                        # Unknown-size Folded Spill
	li	a0, 33
	vslidedown.vx	v0, v8, a0
	csrr	a3, vlenb
	li	a4, 337
	mul	a3, a3, a4
	add	a3, sp, a3
	addi	a3, a3, 208
	vs8r.v	v0, (a3)                        # Unknown-size Folded Spill
	li	t5, 32
	vslidedown.vx	v0, v8, t5
	li	t5, 32
	csrr	a3, vlenb
	li	a4, 321
	mul	a3, a3, a4
	add	a3, sp, a3
	addi	a3, a3, 208
	vs8r.v	v0, (a3)                        # Unknown-size Folded Spill
	vsetivli	zero, 1, e32, m4, ta, ma
	vslidedown.vi	v0, v8, 31
	csrr	a3, vlenb
	li	a4, 305
	mul	a3, a3, a4
	add	a3, sp, a3
	addi	a3, a3, 208
	vs8r.v	v0, (a3)                        # Unknown-size Folded Spill
	vslidedown.vi	v0, v8, 30
	csrr	a3, vlenb
	li	a4, 289
	mul	a3, a3, a4
	add	a3, sp, a3
	addi	a3, a3, 208
	vs8r.v	v0, (a3)                        # Unknown-size Folded Spill
	vslidedown.vi	v0, v8, 29
	csrr	a3, vlenb
	li	a4, 273
	mul	a3, a3, a4
	add	a3, sp, a3
	addi	a3, a3, 208
	vs8r.v	v0, (a3)                        # Unknown-size Folded Spill
	vslidedown.vi	v0, v8, 28
	csrr	a3, vlenb
	slli	a4, a3, 8
	add	a3, a4, a3
	add	a3, sp, a3
	addi	a3, a3, 208
	vs8r.v	v0, (a3)                        # Unknown-size Folded Spill
	vslidedown.vi	v0, v8, 27
	csrr	a3, vlenb
	li	a4, 249
	mul	a3, a3, a4
	add	a3, sp, a3
	addi	a3, a3, 208
	vs8r.v	v0, (a3)                        # Unknown-size Folded Spill
	vslidedown.vi	v0, v8, 26
	csrr	a3, vlenb
	li	a4, 241
	mul	a3, a3, a4
	add	a3, sp, a3
	addi	a3, a3, 208
	vs8r.v	v0, (a3)                        # Unknown-size Folded Spill
	vslidedown.vi	v0, v8, 25
	csrr	a3, vlenb
	li	a4, 233
	mul	a3, a3, a4
	add	a3, sp, a3
	addi	a3, a3, 208
	vs8r.v	v0, (a3)                        # Unknown-size Folded Spill
	vslidedown.vi	v0, v8, 24
	csrr	a3, vlenb
	li	a4, 225
	mul	a3, a3, a4
	add	a3, sp, a3
	addi	a3, a3, 208
	vs8r.v	v0, (a3)                        # Unknown-size Folded Spill
	vslidedown.vi	v0, v8, 23
	csrr	a3, vlenb
	li	a4, 217
	mul	a3, a3, a4
	add	a3, sp, a3
	addi	a3, a3, 208
	vs8r.v	v0, (a3)                        # Unknown-size Folded Spill
	vslidedown.vi	v0, v8, 22
	csrr	a3, vlenb
	li	a4, 209
	mul	a3, a3, a4
	add	a3, sp, a3
	addi	a3, a3, 208
	vs8r.v	v0, (a3)                        # Unknown-size Folded Spill
	vslidedown.vi	v0, v8, 21
	csrr	a3, vlenb
	li	a4, 201
	mul	a3, a3, a4
	add	a3, sp, a3
	addi	a3, a3, 208
	vs8r.v	v0, (a3)                        # Unknown-size Folded Spill
	vslidedown.vi	v0, v8, 20
	csrr	a3, vlenb
	li	a4, 193
	mul	a3, a3, a4
	add	a3, sp, a3
	addi	a3, a3, 208
	vs8r.v	v0, (a3)                        # Unknown-size Folded Spill
	vslidedown.vi	v0, v8, 19
	csrr	a3, vlenb
	li	a4, 185
	mul	a3, a3, a4
	add	a3, sp, a3
	addi	a3, a3, 208
	vs8r.v	v0, (a3)                        # Unknown-size Folded Spill
	vslidedown.vi	v0, v8, 18
	csrr	a3, vlenb
	li	a4, 177
	mul	a3, a3, a4
	add	a3, sp, a3
	addi	a3, a3, 208
	vs8r.v	v0, (a3)                        # Unknown-size Folded Spill
	vslidedown.vi	v0, v8, 17
	csrr	a3, vlenb
	li	a4, 169
	mul	a3, a3, a4
	add	a3, sp, a3
	addi	a3, a3, 208
	vs8r.v	v0, (a3)                        # Unknown-size Folded Spill
	vslidedown.vi	v0, v8, 16
	csrr	a3, vlenb
	li	a4, 161
	mul	a3, a3, a4
	add	a3, sp, a3
	addi	a3, a3, 208
	vs8r.v	v0, (a3)                        # Unknown-size Folded Spill
	vsetivli	zero, 1, e32, m2, ta, ma
	vslidedown.vi	v0, v8, 15
	csrr	a3, vlenb
	li	a4, 153
	mul	a3, a3, a4
	add	a3, sp, a3
	addi	a3, a3, 208
	vs8r.v	v0, (a3)                        # Unknown-size Folded Spill
	vslidedown.vi	v0, v8, 14
	csrr	a3, vlenb
	li	a4, 145
	mul	a3, a3, a4
	add	a3, sp, a3
	addi	a3, a3, 208
	vs8r.v	v0, (a3)                        # Unknown-size Folded Spill
	vslidedown.vi	v0, v8, 13
	csrr	a3, vlenb
	li	a4, 137
	mul	a3, a3, a4
	add	a3, sp, a3
	addi	a3, a3, 208
	vs8r.v	v0, (a3)                        # Unknown-size Folded Spill
	vslidedown.vi	v0, v8, 12
	csrr	a3, vlenb
	slli	a4, a3, 7
	add	a3, a4, a3
	add	a3, sp, a3
	addi	a3, a3, 208
	vs8r.v	v0, (a3)                        # Unknown-size Folded Spill
	vslidedown.vi	v0, v8, 11
	csrr	a3, vlenb
	li	a4, 121
	mul	a3, a3, a4
	add	a3, sp, a3
	addi	a3, a3, 208
	vs8r.v	v0, (a3)                        # Unknown-size Folded Spill
	vslidedown.vi	v0, v8, 10
	csrr	a3, vlenb
	li	a4, 113
	mul	a3, a3, a4
	add	a3, sp, a3
	addi	a3, a3, 208
	vs8r.v	v0, (a3)                        # Unknown-size Folded Spill
	vslidedown.vi	v0, v8, 9
	csrr	a3, vlenb
	li	a4, 105
	mul	a3, a3, a4
	add	a3, sp, a3
	addi	a3, a3, 208
	vs8r.v	v0, (a3)                        # Unknown-size Folded Spill
	vslidedown.vi	v0, v8, 8
	csrr	a3, vlenb
	li	a4, 97
	mul	a3, a3, a4
	add	a3, sp, a3
	addi	a3, a3, 208
	vs8r.v	v0, (a3)                        # Unknown-size Folded Spill
	vsetivli	zero, 1, e32, m1, ta, ma
	vslidedown.vi	v0, v8, 7
	csrr	a3, vlenb
	li	a4, 89
	mul	a3, a3, a4
	add	a3, sp, a3
	addi	a3, a3, 208
	vs8r.v	v0, (a3)                        # Unknown-size Folded Spill
	vslidedown.vi	v0, v8, 6
	csrr	a3, vlenb
	li	a4, 81
	mul	a3, a3, a4
	add	a3, sp, a3
	addi	a3, a3, 208
	vs8r.v	v0, (a3)                        # Unknown-size Folded Spill
	vslidedown.vi	v0, v8, 5
	csrr	a3, vlenb
	li	a4, 73
	mul	a3, a3, a4
	add	a3, sp, a3
	addi	a3, a3, 208
	vs8r.v	v0, (a3)                        # Unknown-size Folded Spill
	vslidedown.vi	v0, v8, 4
	csrr	a3, vlenb
	slli	a4, a3, 6
	add	a3, a4, a3
	add	a3, sp, a3
	addi	a3, a3, 208
	vs8r.v	v0, (a3)                        # Unknown-size Folded Spill
	vslidedown.vi	v0, v8, 3
	csrr	a3, vlenb
	li	a4, 57
	mul	a3, a3, a4
	add	a3, sp, a3
	addi	a3, a3, 208
	vs8r.v	v0, (a3)                        # Unknown-size Folded Spill
	vslidedown.vi	v0, v8, 2
	csrr	a3, vlenb
	li	a4, 49
	mul	a3, a3, a4
	add	a3, sp, a3
	addi	a3, a3, 208
	vs8r.v	v0, (a3)                        # Unknown-size Folded Spill
	vslidedown.vi	v0, v8, 1
	csrr	a3, vlenb
	li	a4, 41
	mul	a3, a3, a4
	add	a3, sp, a3
	addi	a3, a3, 208
	vs8r.v	v0, (a3)                        # Unknown-size Folded Spill
	vsetivli	zero, 2, e32, m8, tu, ma
	csrr	a3, vlenb
	li	a4, 265
	mul	a3, a3, a4
	add	a3, sp, a3
	addi	a3, a3, 208
	vl8r.v	v0, (a3)                        # Unknown-size Folded Reload
	vslideup.vi	v24, v0, 1
	vsetivli	zero, 3, e32, m8, tu, ma
	csrr	a3, vlenb
	li	a4, 281
	mul	a3, a3, a4
	add	a3, sp, a3
	addi	a3, a3, 208
	vl8r.v	v0, (a3)                        # Unknown-size Folded Reload
	vslideup.vi	v24, v0, 2
	vsetivli	zero, 4, e32, m8, tu, ma
	csrr	a3, vlenb
	li	a4, 297
	mul	a3, a3, a4
	add	a3, sp, a3
	addi	a3, a3, 208
	vl8r.v	v0, (a3)                        # Unknown-size Folded Reload
	vslideup.vi	v24, v0, 3
	vsetivli	zero, 5, e32, m8, tu, ma
	csrr	a3, vlenb
	li	a4, 313
	mul	a3, a3, a4
	add	a3, sp, a3
	addi	a3, a3, 208
	vl8r.v	v0, (a3)                        # Unknown-size Folded Reload
	vslideup.vi	v24, v0, 4
	vsetivli	zero, 6, e32, m8, tu, ma
	csrr	a3, vlenb
	li	a4, 329
	mul	a3, a3, a4
	add	a3, sp, a3
	addi	a3, a3, 208
	vl8r.v	v0, (a3)                        # Unknown-size Folded Reload
	vslideup.vi	v24, v0, 5
	vsetivli	zero, 7, e32, m8, tu, ma
	csrr	a3, vlenb
	li	a4, 345
	mul	a3, a3, a4
	add	a3, sp, a3
	addi	a3, a3, 208
	vl8r.v	v0, (a3)                        # Unknown-size Folded Reload
	vslideup.vi	v24, v0, 6
	vsetivli	zero, 8, e32, m8, tu, ma
	csrr	a3, vlenb
	li	a4, 361
	mul	a3, a3, a4
	add	a3, sp, a3
	addi	a3, a3, 208
	vl8r.v	v0, (a3)                        # Unknown-size Folded Reload
	vslideup.vi	v24, v0, 7
	vsetivli	zero, 9, e32, m8, tu, ma
	csrr	a3, vlenb
	li	a4, 377
	mul	a3, a3, a4
	add	a3, sp, a3
	addi	a3, a3, 208
	vl8r.v	v0, (a3)                        # Unknown-size Folded Reload
	vslideup.vi	v24, v0, 8
	vsetivli	zero, 10, e32, m8, tu, ma
	csrr	a3, vlenb
	li	a4, 393
	mul	a3, a3, a4
	add	a3, sp, a3
	addi	a3, a3, 208
	vl8r.v	v0, (a3)                        # Unknown-size Folded Reload
	vslideup.vi	v24, v0, 9
	vsetivli	zero, 11, e32, m8, tu, ma
	csrr	a3, vlenb
	li	a4, 409
	mul	a3, a3, a4
	add	a3, sp, a3
	addi	a3, a3, 208
	vl8r.v	v0, (a3)                        # Unknown-size Folded Reload
	vslideup.vi	v24, v0, 10
	vsetivli	zero, 12, e32, m8, tu, ma
	csrr	a3, vlenb
	li	a4, 425
	mul	a3, a3, a4
	add	a3, sp, a3
	addi	a3, a3, 208
	vl8r.v	v0, (a3)                        # Unknown-size Folded Reload
	vslideup.vi	v24, v0, 11
	vsetivli	zero, 13, e32, m8, tu, ma
	csrr	a3, vlenb
	li	a4, 441
	mul	a3, a3, a4
	add	a3, sp, a3
	addi	a3, a3, 208
	vl8r.v	v0, (a3)                        # Unknown-size Folded Reload
	vslideup.vi	v24, v0, 12
	vsetivli	zero, 14, e32, m8, tu, ma
	csrr	a3, vlenb
	li	a4, 457
	mul	a3, a3, a4
	add	a3, sp, a3
	addi	a3, a3, 208
	vl8r.v	v0, (a3)                        # Unknown-size Folded Reload
	vslideup.vi	v24, v0, 13
	vsetivli	zero, 15, e32, m8, tu, ma
	csrr	a3, vlenb
	li	a4, 473
	mul	a3, a3, a4
	add	a3, sp, a3
	addi	a3, a3, 208
	vl8r.v	v0, (a3)                        # Unknown-size Folded Reload
	vslideup.vi	v24, v0, 14
	vsetivli	zero, 16, e32, m8, tu, ma
	csrr	a3, vlenb
	li	a4, 489
	mul	a3, a3, a4
	add	a3, sp, a3
	addi	a3, a3, 208
	vl8r.v	v0, (a3)                        # Unknown-size Folded Reload
	vslideup.vi	v24, v0, 15
	vsetivli	zero, 17, e32, m8, tu, ma
	csrr	a3, vlenb
	li	a4, 505
	mul	a3, a3, a4
	add	a3, sp, a3
	addi	a3, a3, 208
	vl8r.v	v0, (a3)                        # Unknown-size Folded Reload
	vslideup.vi	v24, v0, 16
	vsetivli	zero, 18, e32, m8, tu, ma
	csrr	a3, vlenb
	li	a4, 521
	mul	a3, a3, a4
	add	a3, sp, a3
	addi	a3, a3, 208
	vl8r.v	v0, (a3)                        # Unknown-size Folded Reload
	vslideup.vi	v24, v0, 17
	vsetivli	zero, 19, e32, m8, tu, ma
	csrr	a3, vlenb
	li	a4, 537
	mul	a3, a3, a4
	add	a3, sp, a3
	addi	a3, a3, 208
	vl8r.v	v0, (a3)                        # Unknown-size Folded Reload
	vslideup.vi	v24, v0, 18
	vsetivli	zero, 20, e32, m8, tu, ma
	csrr	a3, vlenb
	li	a4, 553
	mul	a3, a3, a4
	add	a3, sp, a3
	addi	a3, a3, 208
	vl8r.v	v0, (a3)                        # Unknown-size Folded Reload
	vslideup.vi	v24, v0, 19
	vsetivli	zero, 21, e32, m8, tu, ma
	csrr	a3, vlenb
	li	a4, 569
	mul	a3, a3, a4
	add	a3, sp, a3
	addi	a3, a3, 208
	vl8r.v	v0, (a3)                        # Unknown-size Folded Reload
	vslideup.vi	v24, v0, 20
	vsetivli	zero, 22, e32, m8, tu, ma
	csrr	a3, vlenb
	li	a4, 585
	mul	a3, a3, a4
	add	a3, sp, a3
	addi	a3, a3, 208
	vl8r.v	v0, (a3)                        # Unknown-size Folded Reload
	vslideup.vi	v24, v0, 21
	vsetivli	zero, 23, e32, m8, tu, ma
	csrr	a3, vlenb
	li	a4, 601
	mul	a3, a3, a4
	add	a3, sp, a3
	addi	a3, a3, 208
	vl8r.v	v0, (a3)                        # Unknown-size Folded Reload
	vslideup.vi	v24, v0, 22
	vsetivli	zero, 24, e32, m8, tu, ma
	csrr	a3, vlenb
	li	a4, 617
	mul	a3, a3, a4
	add	a3, sp, a3
	addi	a3, a3, 208
	vl8r.v	v0, (a3)                        # Unknown-size Folded Reload
	vslideup.vi	v24, v0, 23
	vsetivli	zero, 25, e32, m8, tu, ma
	csrr	a3, vlenb
	li	a4, 633
	mul	a3, a3, a4
	add	a3, sp, a3
	addi	a3, a3, 208
	vl8r.v	v0, (a3)                        # Unknown-size Folded Reload
	vslideup.vi	v24, v0, 24
	vsetivli	zero, 26, e32, m8, tu, ma
	csrr	a3, vlenb
	li	a4, 649
	mul	a3, a3, a4
	add	a3, sp, a3
	addi	a3, a3, 208
	vl8r.v	v0, (a3)                        # Unknown-size Folded Reload
	vslideup.vi	v24, v0, 25
	vsetivli	zero, 27, e32, m8, tu, ma
	csrr	a3, vlenb
	li	a4, 665
	mul	a3, a3, a4
	add	a3, sp, a3
	addi	a3, a3, 208
	vl8r.v	v0, (a3)                        # Unknown-size Folded Reload
	vslideup.vi	v24, v0, 26
	vsetivli	zero, 28, e32, m8, tu, ma
	csrr	a3, vlenb
	li	a4, 681
	mul	a3, a3, a4
	add	a3, sp, a3
	addi	a3, a3, 208
	vl8r.v	v0, (a3)                        # Unknown-size Folded Reload
	vslideup.vi	v24, v0, 27
	vsetivli	zero, 29, e32, m8, tu, ma
	csrr	a3, vlenb
	li	a4, 697
	mul	a3, a3, a4
	add	a3, sp, a3
	addi	a3, a3, 208
	vl8r.v	v0, (a3)                        # Unknown-size Folded Reload
	vslideup.vi	v24, v0, 28
	vsetivli	zero, 30, e32, m8, tu, ma
	csrr	a3, vlenb
	li	a4, 713
	mul	a3, a3, a4
	add	a3, sp, a3
	addi	a3, a3, 208
	vl8r.v	v0, (a3)                        # Unknown-size Folded Reload
	vslideup.vi	v24, v0, 29
	vsetivli	zero, 31, e32, m8, tu, ma
	csrr	a3, vlenb
	li	a4, 729
	mul	a3, a3, a4
	add	a3, sp, a3
	addi	a3, a3, 208
	vl8r.v	v0, (a3)                        # Unknown-size Folded Reload
	vslideup.vi	v24, v0, 30
	vsetvli	zero, t5, e32, m8, tu, ma
	csrr	a3, vlenb
	li	a4, 745
	mul	a3, a3, a4
	add	a3, sp, a3
	addi	a3, a3, 208
	vl8r.v	v0, (a3)                        # Unknown-size Folded Reload
	vslideup.vi	v24, v0, 31
	vsetvli	zero, a0, e32, m8, tu, ma
	csrr	a3, vlenb
	li	a4, 769
	mul	a3, a3, a4
	ld	a4, 0(sp)
	add	a3, sp, a3
	addi	a3, a3, 208
	vl8r.v	v0, (a3)                        # Unknown-size Folded Reload
	vslideup.vx	v24, v0, t5
	vsetvli	zero, t3, e32, m8, tu, ma
	csrr	t5, vlenb
	li	a3, 785
	mul	t5, t5, a3
	ld	a3, 8(sp)
	add	t5, sp, t5
	addi	t5, t5, 208
	vl8r.v	v0, (t5)                        # Unknown-size Folded Reload
	vslideup.vx	v24, v0, a0
	vsetvli	zero, a1, e32, m8, tu, ma
	csrr	a0, vlenb
	li	t5, 801
	mul	a0, a0, t5
	add	a0, sp, a0
	addi	a0, a0, 208
	vl8r.v	v0, (a0)                        # Unknown-size Folded Reload
	vslideup.vx	v24, v0, t3
	vsetvli	zero, a2, e32, m8, tu, ma
	csrr	a0, vlenb
	li	t3, 817
	mul	a0, a0, t3
	add	a0, sp, a0
	addi	a0, a0, 208
	vl8r.v	v0, (a0)                        # Unknown-size Folded Reload
	vslideup.vx	v24, v0, a1
	li	a0, 37
	vsetvli	zero, a0, e32, m8, tu, ma
	csrr	a0, vlenb
	li	a1, 825
	mul	a0, a0, a1
	add	a0, sp, a0
	addi	a0, a0, 208
	vl8r.v	v0, (a0)                        # Unknown-size Folded Reload
	vslideup.vx	v24, v0, a2
	li	a0, 38
	vsetvli	zero, a0, e32, m8, tu, ma
	csrr	a0, vlenb
	li	a1, 833
	mul	a0, a0, a1
	add	a0, sp, a0
	addi	a0, a0, 208
	vl8r.v	v0, (a0)                        # Unknown-size Folded Reload
	li	a0, 37
	vslideup.vx	v24, v0, a0
	li	a0, 39
	vsetvli	zero, a0, e32, m8, tu, ma
	csrr	a0, vlenb
	li	a1, 841
	mul	a0, a0, a1
	add	a0, sp, a0
	addi	a0, a0, 208
	vl8r.v	v0, (a0)                        # Unknown-size Folded Reload
	li	a0, 38
	vslideup.vx	v24, v0, a0
	li	t3, 38
	li	a0, 40
	vsetvli	zero, a0, e32, m8, tu, ma
	sd	t3, 8(sp)
	csrr	a0, vlenb
	li	a1, 849
	mul	a0, a0, a1
	add	a0, sp, a0
	addi	a0, a0, 208
	vl8r.v	v0, (a0)                        # Unknown-size Folded Reload
	li	a0, 39
	vslideup.vx	v24, v0, a0
	li	a2, 39
	vsetvli	zero, s9, e32, m8, tu, ma
	csrr	a0, vlenb
	li	a1, 857
	mul	a0, a0, a1
	add	a0, sp, a0
	addi	a0, a0, 208
	vl8r.v	v0, (a0)                        # Unknown-size Folded Reload
	li	a0, 40
	vslideup.vx	v24, v0, a0
	li	a1, 40
	vsetvli	zero, s7, e32, m8, tu, ma
	csrr	a0, vlenb
	li	t3, 865
	mul	a0, a0, t3
	add	a0, sp, a0
	addi	a0, a0, 208
	vl8r.v	v0, (a0)                        # Unknown-size Folded Reload
	vslideup.vx	v24, v0, s9
	vsetvli	zero, s6, e32, m8, tu, ma
	csrr	a0, vlenb
	li	t3, 873
	mul	a0, a0, t3
	add	a0, sp, a0
	addi	a0, a0, 208
	vl8r.v	v0, (a0)                        # Unknown-size Folded Reload
	vslideup.vx	v24, v0, s7
	vsetvli	zero, s5, e32, m8, tu, ma
	csrr	a0, vlenb
	li	t3, 881
	mul	a0, a0, t3
	add	a0, sp, a0
	addi	a0, a0, 208
	vl8r.v	v0, (a0)                        # Unknown-size Folded Reload
	vslideup.vx	v24, v0, s6
	vsetvli	zero, t4, e32, m8, tu, ma
	csrr	a0, vlenb
	li	t3, 889
	mul	a0, a0, t3
	add	a0, sp, a0
	addi	a0, a0, 208
	vl8r.v	v0, (a0)                        # Unknown-size Folded Reload
	vslideup.vx	v24, v0, s5
	vsetvli	zero, s10, e32, m8, tu, ma
	csrr	a0, vlenb
	li	t3, 897
	mul	a0, a0, t3
	add	a0, sp, a0
	addi	a0, a0, 208
	vl8r.v	v0, (a0)                        # Unknown-size Folded Reload
	vslideup.vx	v24, v0, t4
	vsetvli	zero, s11, e32, m8, tu, ma
	csrr	a0, vlenb
	li	t3, 913
	mul	a0, a0, t3
	add	a0, sp, a0
	addi	a0, a0, 208
	vl8r.v	v0, (a0)                        # Unknown-size Folded Reload
	vslideup.vx	v24, v0, s10
	vsetvli	zero, ra, e32, m8, tu, ma
	csrr	a0, vlenb
	li	t3, 929
	mul	a0, a0, t3
	add	a0, sp, a0
	addi	a0, a0, 208
	vl8r.v	v0, (a0)                        # Unknown-size Folded Reload
	vslideup.vx	v24, v0, s11
	vsetvli	zero, t2, e32, m8, tu, ma
	csrr	a0, vlenb
	li	t3, 945
	mul	a0, a0, t3
	add	a0, sp, a0
	addi	a0, a0, 208
	vl8r.v	v0, (a0)                        # Unknown-size Folded Reload
	vslideup.vx	v24, v0, ra
	vsetvli	zero, t1, e32, m8, tu, ma
	csrr	a0, vlenb
	li	t3, 961
	mul	a0, a0, t3
	add	a0, sp, a0
	addi	a0, a0, 208
	vl8r.v	v0, (a0)                        # Unknown-size Folded Reload
	vslideup.vx	v24, v0, t2
	vsetvli	zero, t0, e32, m8, tu, ma
	csrr	a0, vlenb
	li	t3, 977
	mul	a0, a0, t3
	add	a0, sp, a0
	addi	a0, a0, 208
	vl8r.v	v0, (a0)                        # Unknown-size Folded Reload
	vslideup.vx	v24, v0, t1
	vsetvli	zero, a7, e32, m8, tu, ma
	csrr	a0, vlenb
	li	t3, 993
	mul	a0, a0, t3
	add	a0, sp, a0
	addi	a0, a0, 208
	vl8r.v	v0, (a0)                        # Unknown-size Folded Reload
	vslideup.vx	v24, v0, t0
	vsetvli	zero, t6, e32, m8, tu, ma
	csrr	a0, vlenb
	li	t3, 1009
	mul	a0, a0, t3
	add	a0, sp, a0
	addi	a0, a0, 208
	vl8r.v	v0, (a0)                        # Unknown-size Folded Reload
	vslideup.vx	v24, v0, a7
	vsetvli	zero, s0, e32, m8, tu, ma
	csrr	a0, vlenb
	li	t3, 1017
	mul	a0, a0, t3
	add	a0, sp, a0
	addi	a0, a0, 208
	vl8r.v	v0, (a0)                        # Unknown-size Folded Reload
	vslideup.vx	v24, v0, t6
	vsetvli	zero, s1, e32, m8, tu, ma
	csrr	a0, vlenb
	li	t3, 1033
	mul	a0, a0, t3
	add	a0, sp, a0
	addi	a0, a0, 208
	vl8r.v	v0, (a0)                        # Unknown-size Folded Reload
	vslideup.vx	v24, v0, s0
	vsetvli	zero, s2, e32, m8, tu, ma
	csrr	a0, vlenb
	li	t3, 1049
	mul	a0, a0, t3
	add	a0, sp, a0
	addi	a0, a0, 208
	vl8r.v	v0, (a0)                        # Unknown-size Folded Reload
	vslideup.vx	v24, v0, s1
	vsetvli	zero, s3, e32, m8, tu, ma
	csrr	a0, vlenb
	li	t3, 1065
	mul	a0, a0, t3
	add	a0, sp, a0
	addi	a0, a0, 208
	vl8r.v	v0, (a0)                        # Unknown-size Folded Reload
	vslideup.vx	v24, v0, s2
	vsetvli	zero, s8, e32, m8, tu, ma
	csrr	a0, vlenb
	li	t3, 1081
	mul	a0, a0, t3
	add	a0, sp, a0
	addi	a0, a0, 208
	vl8r.v	v0, (a0)                        # Unknown-size Folded Reload
	vslideup.vx	v24, v0, s3
	vsetvli	zero, s4, e32, m8, tu, ma
	csrr	a0, vlenb
	li	t3, 1097
	mul	a0, a0, t3
	add	a0, sp, a0
	addi	a0, a0, 208
	vl8r.v	v0, (a0)                        # Unknown-size Folded Reload
	vslideup.vx	v24, v0, s8
	vsetvli	zero, a6, e32, m8, tu, ma
	csrr	a0, vlenb
	li	t3, 1113
	mul	a0, a0, t3
	add	a0, sp, a0
	addi	a0, a0, 208
	vl8r.v	v0, (a0)                        # Unknown-size Folded Reload
	vslideup.vx	v24, v0, s4
	vsetvli	zero, a5, e32, m8, tu, ma
	csrr	a0, vlenb
	li	t3, 1129
	mul	a0, a0, t3
	add	a0, sp, a0
	addi	a0, a0, 208
	vl8r.v	v0, (a0)                        # Unknown-size Folded Reload
	vslideup.vx	v24, v0, a6
	vsetvli	zero, a4, e32, m8, tu, ma
	csrr	a0, vlenb
	li	t3, 1145
	mul	a0, a0, t3
	add	a0, sp, a0
	addi	a0, a0, 208
	vl8r.v	v0, (a0)                        # Unknown-size Folded Reload
	vslideup.vx	v24, v0, a5
	vsetvli	zero, a3, e32, m8, tu, ma
	csrr	a0, vlenb
	li	t3, 1161
	mul	a0, a0, t3
	add	a0, sp, a0
	addi	a0, a0, 208
	vl8r.v	v0, (a0)                        # Unknown-size Folded Reload
	vslideup.vx	v24, v0, a4
	li	t5, 64
	vsetvli	zero, t5, e32, m8, ta, ma
	csrr	a0, vlenb
	li	t3, 1185
	mul	a0, a0, t3
	add	a0, sp, a0
	addi	a0, a0, 208
	vl8r.v	v0, (a0)                        # Unknown-size Folded Reload
	vslideup.vx	v24, v0, a3
	csrr	a0, vlenb
	li	t3, 25
	mul	a0, a0, t3
	add	a0, sp, a0
	addi	a0, a0, 208
	vl8r.v	v0, (a0)                        # Unknown-size Folded Reload
	vfmacc.vf	v24, fa5, v0
	vsetivli	zero, 1, e32, m8, ta, ma
	vslidedown.vx	v0, v24, a3
	ld	a0, 144(sp)                     # 8-byte Folded Reload
	csrr	a3, vlenb
	li	t3, 1185
	mul	a3, a3, t3
	ld	t3, 8(sp)
	add	a3, sp, a3
	addi	a3, a3, 208
	vs8r.v	v0, (a3)                        # Unknown-size Folded Spill
	vslidedown.vx	v0, v24, a4
	csrr	a3, vlenb
	li	a4, 1161
	mul	a3, a3, a4
	add	a3, sp, a3
	addi	a3, a3, 208
	vs8r.v	v0, (a3)                        # Unknown-size Folded Spill
	vslidedown.vx	v0, v24, a5
	csrr	a3, vlenb
	li	a4, 1145
	mul	a3, a3, a4
	add	a3, sp, a3
	addi	a3, a3, 208
	vs8r.v	v0, (a3)                        # Unknown-size Folded Spill
	vslidedown.vx	v0, v24, a6
	csrr	a3, vlenb
	li	a4, 1129
	mul	a3, a3, a4
	add	a3, sp, a3
	addi	a3, a3, 208
	vs8r.v	v0, (a3)                        # Unknown-size Folded Spill
	vslidedown.vx	v0, v24, s4
	csrr	a3, vlenb
	li	a4, 1113
	mul	a3, a3, a4
	add	a3, sp, a3
	addi	a3, a3, 208
	vs8r.v	v0, (a3)                        # Unknown-size Folded Spill
	vslidedown.vx	v0, v24, s8
	csrr	a3, vlenb
	li	a4, 1097
	mul	a3, a3, a4
	add	a3, sp, a3
	addi	a3, a3, 208
	vs8r.v	v0, (a3)                        # Unknown-size Folded Spill
	vslidedown.vx	v0, v24, s3
	csrr	a3, vlenb
	li	a4, 1081
	mul	a3, a3, a4
	add	a3, sp, a3
	addi	a3, a3, 208
	vs8r.v	v0, (a3)                        # Unknown-size Folded Spill
	vslidedown.vx	v0, v24, s2
	csrr	a3, vlenb
	li	a4, 1065
	mul	a3, a3, a4
	add	a3, sp, a3
	addi	a3, a3, 208
	vs8r.v	v0, (a3)                        # Unknown-size Folded Spill
	vslidedown.vx	v0, v24, s1
	csrr	a3, vlenb
	li	a4, 1049
	mul	a3, a3, a4
	add	a3, sp, a3
	addi	a3, a3, 208
	vs8r.v	v0, (a3)                        # Unknown-size Folded Spill
	vslidedown.vx	v0, v24, s0
	csrr	a3, vlenb
	li	a4, 1033
	mul	a3, a3, a4
	add	a3, sp, a3
	addi	a3, a3, 208
	vs8r.v	v0, (a3)                        # Unknown-size Folded Spill
	vslidedown.vx	v0, v24, t6
	csrr	a3, vlenb
	li	a4, 1017
	mul	a3, a3, a4
	add	a3, sp, a3
	addi	a3, a3, 208
	vs8r.v	v0, (a3)                        # Unknown-size Folded Spill
	vslidedown.vx	v0, v24, a7
	csrr	a3, vlenb
	li	a4, 1009
	mul	a3, a3, a4
	add	a3, sp, a3
	addi	a3, a3, 208
	vs8r.v	v0, (a3)                        # Unknown-size Folded Spill
	vslidedown.vx	v0, v24, t0
	csrr	a3, vlenb
	li	a4, 993
	mul	a3, a3, a4
	add	a3, sp, a3
	addi	a3, a3, 208
	vs8r.v	v0, (a3)                        # Unknown-size Folded Spill
	vslidedown.vx	v0, v24, t1
	csrr	a3, vlenb
	li	a4, 977
	mul	a3, a3, a4
	add	a3, sp, a3
	addi	a3, a3, 208
	vs8r.v	v0, (a3)                        # Unknown-size Folded Spill
	vslidedown.vx	v0, v24, t2
	csrr	a3, vlenb
	li	a4, 961
	mul	a3, a3, a4
	add	a3, sp, a3
	addi	a3, a3, 208
	vs8r.v	v0, (a3)                        # Unknown-size Folded Spill
	vslidedown.vx	v0, v24, ra
	csrr	a3, vlenb
	li	a4, 945
	mul	a3, a3, a4
	add	a3, sp, a3
	addi	a3, a3, 208
	vs8r.v	v0, (a3)                        # Unknown-size Folded Spill
	vslidedown.vx	v0, v24, s11
	csrr	a3, vlenb
	li	a4, 929
	mul	a3, a3, a4
	add	a3, sp, a3
	addi	a3, a3, 208
	vs8r.v	v0, (a3)                        # Unknown-size Folded Spill
	vslidedown.vx	v0, v24, s10
	csrr	a3, vlenb
	li	a4, 913
	mul	a3, a3, a4
	add	a3, sp, a3
	addi	a3, a3, 208
	vs8r.v	v0, (a3)                        # Unknown-size Folded Spill
	vslidedown.vx	v0, v24, t4
	csrr	a3, vlenb
	li	a4, 897
	mul	a3, a3, a4
	add	a3, sp, a3
	addi	a3, a3, 208
	vs8r.v	v0, (a3)                        # Unknown-size Folded Spill
	vslidedown.vx	v0, v24, s5
	csrr	a3, vlenb
	li	a4, 889
	mul	a3, a3, a4
	add	a3, sp, a3
	addi	a3, a3, 208
	vs8r.v	v0, (a3)                        # Unknown-size Folded Spill
	vslidedown.vx	v0, v24, s6
	csrr	a3, vlenb
	li	a4, 881
	mul	a3, a3, a4
	add	a3, sp, a3
	addi	a3, a3, 208
	vs8r.v	v0, (a3)                        # Unknown-size Folded Spill
	vslidedown.vx	v0, v24, s7
	csrr	a3, vlenb
	li	a4, 873
	mul	a3, a3, a4
	add	a3, sp, a3
	addi	a3, a3, 208
	vs8r.v	v0, (a3)                        # Unknown-size Folded Spill
	vslidedown.vx	v0, v24, s9
	csrr	a3, vlenb
	li	a4, 865
	mul	a3, a3, a4
	add	a3, sp, a3
	addi	a3, a3, 208
	vs8r.v	v0, (a3)                        # Unknown-size Folded Spill
	vslidedown.vx	v0, v24, a1
	csrr	a1, vlenb
	li	a3, 857
	mul	a1, a1, a3
	add	a1, sp, a1
	addi	a1, a1, 208
	vs8r.v	v0, (a1)                        # Unknown-size Folded Spill
	vslidedown.vx	v0, v24, a2
	csrr	a1, vlenb
	li	a2, 849
	mul	a1, a1, a2
	add	a1, sp, a1
	addi	a1, a1, 208
	vs8r.v	v0, (a1)                        # Unknown-size Folded Spill
	vslidedown.vx	v0, v24, t3
	csrr	a1, vlenb
	li	a2, 841
	mul	a1, a1, a2
	add	a1, sp, a1
	addi	a1, a1, 208
	vs8r.v	v0, (a1)                        # Unknown-size Folded Spill
	li	a1, 37
	vslidedown.vx	v0, v24, a1
	csrr	a1, vlenb
	li	a2, 833
	mul	a1, a1, a2
	add	a1, sp, a1
	addi	a1, a1, 208
	vs8r.v	v0, (a1)                        # Unknown-size Folded Spill
	li	a1, 36
	vslidedown.vx	v0, v24, a1
	csrr	a1, vlenb
	li	a2, 825
	mul	a1, a1, a2
	add	a1, sp, a1
	addi	a1, a1, 208
	vs8r.v	v0, (a1)                        # Unknown-size Folded Spill
	li	a1, 35
	vslidedown.vx	v0, v24, a1
	csrr	a1, vlenb
	li	a2, 817
	mul	a1, a1, a2
	add	a1, sp, a1
	addi	a1, a1, 208
	vs8r.v	v0, (a1)                        # Unknown-size Folded Spill
	li	a1, 34
	vslidedown.vx	v0, v24, a1
	csrr	a1, vlenb
	li	a2, 801
	mul	a1, a1, a2
	add	a1, sp, a1
	addi	a1, a1, 208
	vs8r.v	v0, (a1)                        # Unknown-size Folded Spill
	li	a1, 33
	vslidedown.vx	v0, v24, a1
	csrr	a1, vlenb
	li	a2, 785
	mul	a1, a1, a2
	add	a1, sp, a1
	addi	a1, a1, 208
	vs8r.v	v0, (a1)                        # Unknown-size Folded Spill
	li	a1, 32
	vslidedown.vx	v0, v24, a1
	li	a1, 32
	csrr	a2, vlenb
	li	a3, 769
	mul	a2, a2, a3
	add	a2, sp, a2
	addi	a2, a2, 208
	vs8r.v	v0, (a2)                        # Unknown-size Folded Spill
	vsetivli	zero, 1, e32, m4, ta, ma
	vslidedown.vi	v0, v24, 31
	csrr	a2, vlenb
	li	a3, 745
	mul	a2, a2, a3
	add	a2, sp, a2
	addi	a2, a2, 208
	vs8r.v	v0, (a2)                        # Unknown-size Folded Spill
	vslidedown.vi	v0, v24, 30
	csrr	a2, vlenb
	li	a3, 729
	mul	a2, a2, a3
	add	a2, sp, a2
	addi	a2, a2, 208
	vs8r.v	v0, (a2)                        # Unknown-size Folded Spill
	vslidedown.vi	v0, v24, 29
	csrr	a2, vlenb
	li	a3, 713
	mul	a2, a2, a3
	add	a2, sp, a2
	addi	a2, a2, 208
	vs8r.v	v0, (a2)                        # Unknown-size Folded Spill
	vslidedown.vi	v0, v24, 28
	csrr	a2, vlenb
	li	a3, 697
	mul	a2, a2, a3
	add	a2, sp, a2
	addi	a2, a2, 208
	vs8r.v	v0, (a2)                        # Unknown-size Folded Spill
	vslidedown.vi	v0, v24, 27
	csrr	a2, vlenb
	li	a3, 681
	mul	a2, a2, a3
	add	a2, sp, a2
	addi	a2, a2, 208
	vs8r.v	v0, (a2)                        # Unknown-size Folded Spill
	vslidedown.vi	v0, v24, 26
	csrr	a2, vlenb
	li	a3, 665
	mul	a2, a2, a3
	add	a2, sp, a2
	addi	a2, a2, 208
	vs8r.v	v0, (a2)                        # Unknown-size Folded Spill
	vslidedown.vi	v0, v24, 25
	csrr	a2, vlenb
	li	a3, 649
	mul	a2, a2, a3
	add	a2, sp, a2
	addi	a2, a2, 208
	vs8r.v	v0, (a2)                        # Unknown-size Folded Spill
	vslidedown.vi	v0, v24, 24
	csrr	a2, vlenb
	li	a3, 633
	mul	a2, a2, a3
	add	a2, sp, a2
	addi	a2, a2, 208
	vs8r.v	v0, (a2)                        # Unknown-size Folded Spill
	vslidedown.vi	v0, v24, 23
	csrr	a2, vlenb
	li	a3, 617
	mul	a2, a2, a3
	add	a2, sp, a2
	addi	a2, a2, 208
	vs8r.v	v0, (a2)                        # Unknown-size Folded Spill
	vslidedown.vi	v0, v24, 22
	csrr	a2, vlenb
	li	a3, 601
	mul	a2, a2, a3
	add	a2, sp, a2
	addi	a2, a2, 208
	vs8r.v	v0, (a2)                        # Unknown-size Folded Spill
	vslidedown.vi	v0, v24, 21
	csrr	a2, vlenb
	li	a3, 585
	mul	a2, a2, a3
	add	a2, sp, a2
	addi	a2, a2, 208
	vs8r.v	v0, (a2)                        # Unknown-size Folded Spill
	vslidedown.vi	v0, v24, 20
	csrr	a2, vlenb
	li	a3, 569
	mul	a2, a2, a3
	add	a2, sp, a2
	addi	a2, a2, 208
	vs8r.v	v0, (a2)                        # Unknown-size Folded Spill
	vslidedown.vi	v0, v24, 19
	csrr	a2, vlenb
	li	a3, 553
	mul	a2, a2, a3
	add	a2, sp, a2
	addi	a2, a2, 208
	vs8r.v	v0, (a2)                        # Unknown-size Folded Spill
	vslidedown.vi	v0, v24, 18
	csrr	a2, vlenb
	li	a3, 537
	mul	a2, a2, a3
	add	a2, sp, a2
	addi	a2, a2, 208
	vs8r.v	v0, (a2)                        # Unknown-size Folded Spill
	vslidedown.vi	v0, v24, 17
	csrr	a2, vlenb
	li	a3, 521
	mul	a2, a2, a3
	add	a2, sp, a2
	addi	a2, a2, 208
	vs8r.v	v0, (a2)                        # Unknown-size Folded Spill
	vslidedown.vi	v0, v24, 16
	csrr	a2, vlenb
	li	a3, 505
	mul	a2, a2, a3
	add	a2, sp, a2
	addi	a2, a2, 208
	vs8r.v	v0, (a2)                        # Unknown-size Folded Spill
	vsetivli	zero, 1, e32, m2, ta, ma
	vslidedown.vi	v0, v24, 15
	csrr	a2, vlenb
	li	a3, 489
	mul	a2, a2, a3
	add	a2, sp, a2
	addi	a2, a2, 208
	vs8r.v	v0, (a2)                        # Unknown-size Folded Spill
	vslidedown.vi	v0, v24, 14
	csrr	a2, vlenb
	li	a3, 473
	mul	a2, a2, a3
	add	a2, sp, a2
	addi	a2, a2, 208
	vs8r.v	v0, (a2)                        # Unknown-size Folded Spill
	vslidedown.vi	v0, v24, 13
	csrr	a2, vlenb
	li	a3, 457
	mul	a2, a2, a3
	add	a2, sp, a2
	addi	a2, a2, 208
	vs8r.v	v0, (a2)                        # Unknown-size Folded Spill
	vslidedown.vi	v0, v24, 12
	csrr	a2, vlenb
	li	a3, 441
	mul	a2, a2, a3
	add	a2, sp, a2
	addi	a2, a2, 208
	vs8r.v	v0, (a2)                        # Unknown-size Folded Spill
	vslidedown.vi	v0, v24, 11
	csrr	a2, vlenb
	li	a3, 425
	mul	a2, a2, a3
	add	a2, sp, a2
	addi	a2, a2, 208
	vs8r.v	v0, (a2)                        # Unknown-size Folded Spill
	vslidedown.vi	v0, v24, 10
	csrr	a2, vlenb
	li	a3, 409
	mul	a2, a2, a3
	add	a2, sp, a2
	addi	a2, a2, 208
	vs8r.v	v0, (a2)                        # Unknown-size Folded Spill
	vslidedown.vi	v0, v24, 9
	csrr	a2, vlenb
	li	a3, 393
	mul	a2, a2, a3
	add	a2, sp, a2
	addi	a2, a2, 208
	vs8r.v	v0, (a2)                        # Unknown-size Folded Spill
	vslidedown.vi	v0, v24, 8
	csrr	a2, vlenb
	li	a3, 377
	mul	a2, a2, a3
	add	a2, sp, a2
	addi	a2, a2, 208
	vs8r.v	v0, (a2)                        # Unknown-size Folded Spill
	vsetivli	zero, 1, e32, m1, ta, ma
	vslidedown.vi	v0, v24, 7
	csrr	a2, vlenb
	li	a3, 361
	mul	a2, a2, a3
	add	a2, sp, a2
	addi	a2, a2, 208
	vs8r.v	v0, (a2)                        # Unknown-size Folded Spill
	vslidedown.vi	v0, v24, 6
	csrr	a2, vlenb
	li	a3, 345
	mul	a2, a2, a3
	add	a2, sp, a2
	addi	a2, a2, 208
	vs8r.v	v0, (a2)                        # Unknown-size Folded Spill
	vslidedown.vi	v0, v24, 5
	csrr	a2, vlenb
	li	a3, 329
	mul	a2, a2, a3
	add	a2, sp, a2
	addi	a2, a2, 208
	vs8r.v	v0, (a2)                        # Unknown-size Folded Spill
	vslidedown.vi	v0, v24, 4
	csrr	a2, vlenb
	li	a3, 313
	mul	a2, a2, a3
	add	a2, sp, a2
	addi	a2, a2, 208
	vs8r.v	v0, (a2)                        # Unknown-size Folded Spill
	vslidedown.vi	v0, v24, 3
	csrr	a2, vlenb
	li	a3, 297
	mul	a2, a2, a3
	add	a2, sp, a2
	addi	a2, a2, 208
	vs8r.v	v0, (a2)                        # Unknown-size Folded Spill
	vslidedown.vi	v0, v24, 2
	csrr	a2, vlenb
	li	a3, 281
	mul	a2, a2, a3
	add	a2, sp, a2
	addi	a2, a2, 208
	vs8r.v	v0, (a2)                        # Unknown-size Folded Spill
	vslidedown.vi	v0, v24, 1
	csrr	a2, vlenb
	li	a3, 265
	mul	a2, a2, a3
	add	a2, sp, a2
	addi	a2, a2, 208
	vs8r.v	v0, (a2)                        # Unknown-size Folded Spill
	vsetivli	zero, 2, e32, m8, tu, ma
	csrr	a2, vlenb
	li	a3, 905
	mul	a2, a2, a3
	add	a2, sp, a2
	addi	a2, a2, 208
	vl8r.v	v0, (a2)                        # Unknown-size Folded Reload
	vslideup.vi	v16, v0, 1
	vsetivli	zero, 3, e32, m8, tu, ma
	csrr	a2, vlenb
	li	a3, 921
	mul	a2, a2, a3
	add	a2, sp, a2
	addi	a2, a2, 208
	vl8r.v	v0, (a2)                        # Unknown-size Folded Reload
	vslideup.vi	v16, v0, 2
	vsetivli	zero, 4, e32, m8, tu, ma
	csrr	a2, vlenb
	li	a3, 937
	mul	a2, a2, a3
	add	a2, sp, a2
	addi	a2, a2, 208
	vl8r.v	v0, (a2)                        # Unknown-size Folded Reload
	vslideup.vi	v16, v0, 3
	vsetivli	zero, 5, e32, m8, tu, ma
	csrr	a2, vlenb
	li	a3, 953
	mul	a2, a2, a3
	add	a2, sp, a2
	addi	a2, a2, 208
	vl8r.v	v0, (a2)                        # Unknown-size Folded Reload
	vslideup.vi	v16, v0, 4
	vsetivli	zero, 6, e32, m8, tu, ma
	csrr	a2, vlenb
	li	a3, 969
	mul	a2, a2, a3
	add	a2, sp, a2
	addi	a2, a2, 208
	vl8r.v	v0, (a2)                        # Unknown-size Folded Reload
	vslideup.vi	v16, v0, 5
	vsetivli	zero, 7, e32, m8, tu, ma
	csrr	a2, vlenb
	li	a3, 985
	mul	a2, a2, a3
	add	a2, sp, a2
	addi	a2, a2, 208
	vl8r.v	v0, (a2)                        # Unknown-size Folded Reload
	vslideup.vi	v16, v0, 6
	vsetivli	zero, 8, e32, m8, tu, ma
	csrr	a2, vlenb
	li	a3, 1001
	mul	a2, a2, a3
	add	a2, sp, a2
	addi	a2, a2, 208
	vl8r.v	v0, (a2)                        # Unknown-size Folded Reload
	vslideup.vi	v16, v0, 7
	vsetivli	zero, 9, e32, m8, tu, ma
	csrr	a2, vlenb
	slli	a3, a2, 10
	add	a2, a3, a2
	add	a2, sp, a2
	addi	a2, a2, 208
	vl8r.v	v0, (a2)                        # Unknown-size Folded Reload
	vslideup.vi	v16, v0, 8
	vsetivli	zero, 10, e32, m8, tu, ma
	csrr	a2, vlenb
	li	a3, 1041
	mul	a2, a2, a3
	add	a2, sp, a2
	addi	a2, a2, 208
	vl8r.v	v0, (a2)                        # Unknown-size Folded Reload
	vslideup.vi	v16, v0, 9
	vsetivli	zero, 11, e32, m8, tu, ma
	csrr	a2, vlenb
	li	a3, 1057
	mul	a2, a2, a3
	add	a2, sp, a2
	addi	a2, a2, 208
	vl8r.v	v0, (a2)                        # Unknown-size Folded Reload
	vslideup.vi	v16, v0, 10
	vsetivli	zero, 12, e32, m8, tu, ma
	csrr	a2, vlenb
	li	a3, 1073
	mul	a2, a2, a3
	add	a2, sp, a2
	addi	a2, a2, 208
	vl8r.v	v0, (a2)                        # Unknown-size Folded Reload
	vslideup.vi	v16, v0, 11
	vsetivli	zero, 13, e32, m8, tu, ma
	csrr	a2, vlenb
	li	a3, 1089
	mul	a2, a2, a3
	add	a2, sp, a2
	addi	a2, a2, 208
	vl8r.v	v0, (a2)                        # Unknown-size Folded Reload
	vslideup.vi	v16, v0, 12
	vsetivli	zero, 14, e32, m8, tu, ma
	csrr	a2, vlenb
	li	a3, 1105
	mul	a2, a2, a3
	add	a2, sp, a2
	addi	a2, a2, 208
	vl8r.v	v0, (a2)                        # Unknown-size Folded Reload
	vslideup.vi	v16, v0, 13
	vsetivli	zero, 15, e32, m8, tu, ma
	csrr	a2, vlenb
	li	a3, 1121
	mul	a2, a2, a3
	add	a2, sp, a2
	addi	a2, a2, 208
	vl8r.v	v0, (a2)                        # Unknown-size Folded Reload
	vslideup.vi	v16, v0, 14
	vsetivli	zero, 16, e32, m8, tu, ma
	csrr	a2, vlenb
	li	a3, 1137
	mul	a2, a2, a3
	add	a2, sp, a2
	addi	a2, a2, 208
	vl8r.v	v0, (a2)                        # Unknown-size Folded Reload
	vslideup.vi	v16, v0, 15
	vsetivli	zero, 17, e32, m8, tu, ma
	csrr	a2, vlenb
	li	a3, 1153
	mul	a2, a2, a3
	add	a2, sp, a2
	addi	a2, a2, 208
	vl8r.v	v0, (a2)                        # Unknown-size Folded Reload
	vslideup.vi	v16, v0, 16
	vsetivli	zero, 18, e32, m8, tu, ma
	csrr	a2, vlenb
	li	a3, 1169
	mul	a2, a2, a3
	add	a2, sp, a2
	addi	a2, a2, 208
	vl8r.v	v0, (a2)                        # Unknown-size Folded Reload
	vslideup.vi	v16, v0, 17
	vsetivli	zero, 19, e32, m8, tu, ma
	csrr	a2, vlenb
	li	a3, 1177
	mul	a2, a2, a3
	add	a2, sp, a2
	addi	a2, a2, 208
	vl8r.v	v0, (a2)                        # Unknown-size Folded Reload
	vslideup.vi	v16, v0, 18
	vsetivli	zero, 20, e32, m8, tu, ma
	csrr	a2, vlenb
	li	a3, 1201
	mul	a2, a2, a3
	add	a2, sp, a2
	addi	a2, a2, 208
	vl8r.v	v0, (a2)                        # Unknown-size Folded Reload
	vslideup.vi	v16, v0, 19
	vsetivli	zero, 21, e32, m8, tu, ma
	csrr	a2, vlenb
	li	a3, 1193
	mul	a2, a2, a3
	add	a2, sp, a2
	addi	a2, a2, 208
	vl8r.v	v0, (a2)                        # Unknown-size Folded Reload
	vslideup.vi	v16, v0, 20
	vsetivli	zero, 22, e32, m8, tu, ma
	csrr	a2, vlenb
	li	a3, 1217
	mul	a2, a2, a3
	add	a2, sp, a2
	addi	a2, a2, 208
	vl8r.v	v0, (a2)                        # Unknown-size Folded Reload
	vslideup.vi	v16, v0, 21
	vsetivli	zero, 23, e32, m8, tu, ma
	csrr	a2, vlenb
	li	a3, 1209
	mul	a2, a2, a3
	add	a2, sp, a2
	addi	a2, a2, 208
	vl8r.v	v0, (a2)                        # Unknown-size Folded Reload
	vslideup.vi	v16, v0, 22
	vsetivli	zero, 24, e32, m8, tu, ma
	csrr	a2, vlenb
	li	a3, 1233
	mul	a2, a2, a3
	add	a2, sp, a2
	addi	a2, a2, 208
	vl8r.v	v0, (a2)                        # Unknown-size Folded Reload
	vslideup.vi	v16, v0, 23
	vsetivli	zero, 25, e32, m8, tu, ma
	csrr	a2, vlenb
	li	a3, 1225
	mul	a2, a2, a3
	add	a2, sp, a2
	addi	a2, a2, 208
	vl8r.v	v0, (a2)                        # Unknown-size Folded Reload
	vslideup.vi	v16, v0, 24
	vsetivli	zero, 26, e32, m8, tu, ma
	csrr	a2, vlenb
	li	a3, 1249
	mul	a2, a2, a3
	add	a2, sp, a2
	addi	a2, a2, 208
	vl8r.v	v0, (a2)                        # Unknown-size Folded Reload
	vslideup.vi	v16, v0, 25
	vsetivli	zero, 27, e32, m8, tu, ma
	csrr	a2, vlenb
	li	a3, 1241
	mul	a2, a2, a3
	add	a2, sp, a2
	addi	a2, a2, 208
	vl8r.v	v0, (a2)                        # Unknown-size Folded Reload
	vslideup.vi	v16, v0, 26
	vsetivli	zero, 28, e32, m8, tu, ma
	csrr	a2, vlenb
	li	a3, 1265
	mul	a2, a2, a3
	add	a2, sp, a2
	addi	a2, a2, 208
	vl8r.v	v0, (a2)                        # Unknown-size Folded Reload
	vslideup.vi	v16, v0, 27
	vsetivli	zero, 29, e32, m8, tu, ma
	csrr	a2, vlenb
	li	a3, 1257
	mul	a2, a2, a3
	add	a2, sp, a2
	addi	a2, a2, 208
	vl8r.v	v0, (a2)                        # Unknown-size Folded Reload
	vslideup.vi	v16, v0, 28
	vsetivli	zero, 30, e32, m8, tu, ma
	csrr	a2, vlenb
	li	a3, 1281
	mul	a2, a2, a3
	add	a2, sp, a2
	addi	a2, a2, 208
	vl8r.v	v0, (a2)                        # Unknown-size Folded Reload
	vslideup.vi	v16, v0, 29
	vsetivli	zero, 31, e32, m8, tu, ma
	csrr	a2, vlenb
	li	a3, 1273
	mul	a2, a2, a3
	add	a2, sp, a2
	addi	a2, a2, 208
	vl8r.v	v0, (a2)                        # Unknown-size Folded Reload
	vslideup.vi	v16, v0, 30
	vsetvli	zero, a1, e32, m8, tu, ma
	csrr	a1, vlenb
	li	a2, 1289
	mul	a1, a1, a2
	add	a1, sp, a1
	addi	a1, a1, 208
	vl8r.v	v0, (a1)                        # Unknown-size Folded Reload
	vslideup.vi	v16, v0, 31
	vsetvli	zero, t5, e32, m8, ta, ma
	csrr	a1, vlenb
	slli	a2, a1, 5
	add	a1, a2, a1
	add	a1, sp, a1
	addi	a1, a1, 208
	vl8r.v	v0, (a1)                        # Unknown-size Folded Reload
	vfmacc.vf	v16, fa5, v0
	vsetivli	zero, 1, e32, m4, ta, ma
	vslidedown.vi	v0, v16, 31
	csrr	a1, vlenb
	li	a2, 1289
	mul	a1, a1, a2
	add	a1, sp, a1
	addi	a1, a1, 208
	vs8r.v	v0, (a1)                        # Unknown-size Folded Spill
	vslidedown.vi	v0, v16, 30
	csrr	a1, vlenb
	li	a2, 1273
	mul	a1, a1, a2
	add	a1, sp, a1
	addi	a1, a1, 208
	vs8r.v	v0, (a1)                        # Unknown-size Folded Spill
	vslidedown.vi	v0, v16, 29
	csrr	a1, vlenb
	li	a2, 1281
	mul	a1, a1, a2
	add	a1, sp, a1
	addi	a1, a1, 208
	vs8r.v	v0, (a1)                        # Unknown-size Folded Spill
	vslidedown.vi	v0, v16, 28
	csrr	a1, vlenb
	li	a2, 1257
	mul	a1, a1, a2
	add	a1, sp, a1
	addi	a1, a1, 208
	vs8r.v	v0, (a1)                        # Unknown-size Folded Spill
	vslidedown.vi	v0, v16, 27
	csrr	a1, vlenb
	li	a2, 1265
	mul	a1, a1, a2
	add	a1, sp, a1
	addi	a1, a1, 208
	vs8r.v	v0, (a1)                        # Unknown-size Folded Spill
	vslidedown.vi	v0, v16, 26
	csrr	a1, vlenb
	li	a2, 1241
	mul	a1, a1, a2
	add	a1, sp, a1
	addi	a1, a1, 208
	vs8r.v	v0, (a1)                        # Unknown-size Folded Spill
	vslidedown.vi	v0, v16, 25
	csrr	a1, vlenb
	li	a2, 1249
	mul	a1, a1, a2
	add	a1, sp, a1
	addi	a1, a1, 208
	vs8r.v	v0, (a1)                        # Unknown-size Folded Spill
	vslidedown.vi	v0, v16, 24
	csrr	a1, vlenb
	li	a2, 1225
	mul	a1, a1, a2
	add	a1, sp, a1
	addi	a1, a1, 208
	vs8r.v	v0, (a1)                        # Unknown-size Folded Spill
	vslidedown.vi	v0, v16, 23
	csrr	a1, vlenb
	li	a2, 1233
	mul	a1, a1, a2
	add	a1, sp, a1
	addi	a1, a1, 208
	vs8r.v	v0, (a1)                        # Unknown-size Folded Spill
	vslidedown.vi	v0, v16, 22
	csrr	a1, vlenb
	li	a2, 1209
	mul	a1, a1, a2
	add	a1, sp, a1
	addi	a1, a1, 208
	vs8r.v	v0, (a1)                        # Unknown-size Folded Spill
	vslidedown.vi	v0, v16, 21
	csrr	a1, vlenb
	li	a2, 1217
	mul	a1, a1, a2
	add	a1, sp, a1
	addi	a1, a1, 208
	vs8r.v	v0, (a1)                        # Unknown-size Folded Spill
	vslidedown.vi	v0, v16, 20
	csrr	a1, vlenb
	li	a2, 1193
	mul	a1, a1, a2
	add	a1, sp, a1
	addi	a1, a1, 208
	vs8r.v	v0, (a1)                        # Unknown-size Folded Spill
	vslidedown.vi	v0, v16, 19
	csrr	a1, vlenb
	li	a2, 1201
	mul	a1, a1, a2
	add	a1, sp, a1
	addi	a1, a1, 208
	vs8r.v	v0, (a1)                        # Unknown-size Folded Spill
	vslidedown.vi	v0, v16, 18
	csrr	a1, vlenb
	li	a2, 1177
	mul	a1, a1, a2
	add	a1, sp, a1
	addi	a1, a1, 208
	vs8r.v	v0, (a1)                        # Unknown-size Folded Spill
	vslidedown.vi	v0, v16, 17
	csrr	a1, vlenb
	li	a2, 1169
	mul	a1, a1, a2
	add	a1, sp, a1
	addi	a1, a1, 208
	vs8r.v	v0, (a1)                        # Unknown-size Folded Spill
	vslidedown.vi	v0, v16, 16
	csrr	a1, vlenb
	li	a2, 1153
	mul	a1, a1, a2
	add	a1, sp, a1
	addi	a1, a1, 208
	vs8r.v	v0, (a1)                        # Unknown-size Folded Spill
	vsetivli	zero, 1, e32, m2, ta, ma
	vslidedown.vi	v0, v16, 15
	csrr	a1, vlenb
	li	a2, 1137
	mul	a1, a1, a2
	add	a1, sp, a1
	addi	a1, a1, 208
	vs8r.v	v0, (a1)                        # Unknown-size Folded Spill
	vslidedown.vi	v0, v16, 14
	csrr	a1, vlenb
	li	a2, 1121
	mul	a1, a1, a2
	add	a1, sp, a1
	addi	a1, a1, 208
	vs8r.v	v0, (a1)                        # Unknown-size Folded Spill
	vslidedown.vi	v0, v16, 13
	csrr	a1, vlenb
	li	a2, 1105
	mul	a1, a1, a2
	add	a1, sp, a1
	addi	a1, a1, 208
	vs8r.v	v0, (a1)                        # Unknown-size Folded Spill
	vslidedown.vi	v0, v16, 12
	csrr	a1, vlenb
	li	a2, 1089
	mul	a1, a1, a2
	add	a1, sp, a1
	addi	a1, a1, 208
	vs8r.v	v0, (a1)                        # Unknown-size Folded Spill
	vslidedown.vi	v0, v16, 11
	csrr	a1, vlenb
	li	a2, 1073
	mul	a1, a1, a2
	add	a1, sp, a1
	addi	a1, a1, 208
	vs8r.v	v0, (a1)                        # Unknown-size Folded Spill
	vslidedown.vi	v0, v16, 10
	csrr	a1, vlenb
	li	a2, 1057
	mul	a1, a1, a2
	add	a1, sp, a1
	addi	a1, a1, 208
	vs8r.v	v0, (a1)                        # Unknown-size Folded Spill
	vslidedown.vi	v0, v16, 9
	csrr	a1, vlenb
	li	a2, 1041
	mul	a1, a1, a2
	add	a1, sp, a1
	addi	a1, a1, 208
	vs8r.v	v0, (a1)                        # Unknown-size Folded Spill
	vslidedown.vi	v0, v16, 8
	csrr	a1, vlenb
	slli	a2, a1, 10
	add	a1, a2, a1
	add	a1, sp, a1
	addi	a1, a1, 208
	vs8r.v	v0, (a1)                        # Unknown-size Folded Spill
	vsetivli	zero, 1, e32, m1, ta, ma
	addi	a0, a0, 1
	vslidedown.vi	v0, v16, 7
	csrr	a1, vlenb
	li	a2, 1001
	mul	a1, a1, a2
	add	a1, sp, a1
	addi	a1, a1, 208
	vs8r.v	v0, (a1)                        # Unknown-size Folded Spill
	vslidedown.vi	v0, v16, 6
	csrr	a1, vlenb
	li	a2, 985
	mul	a1, a1, a2
	add	a1, sp, a1
	addi	a1, a1, 208
	vs8r.v	v0, (a1)                        # Unknown-size Folded Spill
	vslidedown.vi	v0, v16, 5
	csrr	a1, vlenb
	li	a2, 969
	mul	a1, a1, a2
	add	a1, sp, a1
	addi	a1, a1, 208
	vs8r.v	v0, (a1)                        # Unknown-size Folded Spill
	vslidedown.vi	v0, v16, 4
	csrr	a1, vlenb
	li	a2, 953
	mul	a1, a1, a2
	add	a1, sp, a1
	addi	a1, a1, 208
	vs8r.v	v0, (a1)                        # Unknown-size Folded Spill
	vslidedown.vi	v0, v16, 3
	csrr	a1, vlenb
	li	a2, 937
	mul	a1, a1, a2
	add	a1, sp, a1
	addi	a1, a1, 208
	vs8r.v	v0, (a1)                        # Unknown-size Folded Spill
	vslidedown.vi	v0, v16, 2
	csrr	a1, vlenb
	li	a2, 921
	mul	a1, a1, a2
	add	a1, sp, a1
	addi	a1, a1, 208
	vs8r.v	v0, (a1)                        # Unknown-size Folded Spill
	vslidedown.vi	v0, v16, 1
	csrr	a1, vlenb
	li	a2, 905
	j	.LBB0_15
.LBB0_17:                               #   in Loop: Header=BB0_12 Depth=2
	vsetivli	zero, 1, e32, mf2, ta, ma
	vmv.s.x	v16, zero
	li	a2, 0
	vmv1r.v	v8, v16
	csrr	a0, vlenb
	li	a1, 25
	mul	a0, a0, a1
	add	a0, sp, a0
	addi	a0, a0, 208
	vs8r.v	v8, (a0)                        # Unknown-size Folded Spill
	csrr	a0, vlenb
	slli	a1, a0, 5
	add	a0, a1, a0
	add	a0, sp, a0
	addi	a0, a0, 208
	vs8r.v	v8, (a0)                        # Unknown-size Folded Spill
	csrr	a0, vlenb
	li	a1, 41
	mul	a0, a0, a1
	add	a0, sp, a0
	addi	a0, a0, 208
	vs8r.v	v8, (a0)                        # Unknown-size Folded Spill
	csrr	a0, vlenb
	li	a1, 49
	mul	a0, a0, a1
	add	a0, sp, a0
	addi	a0, a0, 208
	vs8r.v	v8, (a0)                        # Unknown-size Folded Spill
	csrr	a0, vlenb
	li	a1, 57
	mul	a0, a0, a1
	add	a0, sp, a0
	addi	a0, a0, 208
	vs8r.v	v8, (a0)                        # Unknown-size Folded Spill
	csrr	a0, vlenb
	slli	a1, a0, 6
	add	a0, a1, a0
	add	a0, sp, a0
	addi	a0, a0, 208
	vs8r.v	v8, (a0)                        # Unknown-size Folded Spill
	csrr	a0, vlenb
	li	a1, 73
	mul	a0, a0, a1
	add	a0, sp, a0
	addi	a0, a0, 208
	vs8r.v	v8, (a0)                        # Unknown-size Folded Spill
	csrr	a0, vlenb
	li	a1, 81
	mul	a0, a0, a1
	add	a0, sp, a0
	addi	a0, a0, 208
	vs8r.v	v8, (a0)                        # Unknown-size Folded Spill
	csrr	a0, vlenb
	li	a1, 89
	mul	a0, a0, a1
	add	a0, sp, a0
	addi	a0, a0, 208
	vs8r.v	v8, (a0)                        # Unknown-size Folded Spill
	csrr	a0, vlenb
	li	a1, 97
	mul	a0, a0, a1
	add	a0, sp, a0
	addi	a0, a0, 208
	vs8r.v	v8, (a0)                        # Unknown-size Folded Spill
	csrr	a0, vlenb
	li	a1, 113
	mul	a0, a0, a1
	add	a0, sp, a0
	addi	a0, a0, 208
	vs8r.v	v8, (a0)                        # Unknown-size Folded Spill
	csrr	a0, vlenb
	li	a1, 121
	mul	a0, a0, a1
	add	a0, sp, a0
	addi	a0, a0, 208
	vs8r.v	v8, (a0)                        # Unknown-size Folded Spill
	csrr	a0, vlenb
	slli	a1, a0, 7
	add	a0, a1, a0
	add	a0, sp, a0
	addi	a0, a0, 208
	vs8r.v	v8, (a0)                        # Unknown-size Folded Spill
	csrr	a0, vlenb
	li	a1, 137
	mul	a0, a0, a1
	add	a0, sp, a0
	addi	a0, a0, 208
	vs8r.v	v8, (a0)                        # Unknown-size Folded Spill
	csrr	a0, vlenb
	li	a1, 145
	mul	a0, a0, a1
	add	a0, sp, a0
	addi	a0, a0, 208
	vs8r.v	v8, (a0)                        # Unknown-size Folded Spill
	csrr	a0, vlenb
	li	a1, 153
	mul	a0, a0, a1
	add	a0, sp, a0
	addi	a0, a0, 208
	vs8r.v	v8, (a0)                        # Unknown-size Folded Spill
	csrr	a0, vlenb
	li	a1, 161
	mul	a0, a0, a1
	add	a0, sp, a0
	addi	a0, a0, 208
	vs8r.v	v8, (a0)                        # Unknown-size Folded Spill
	csrr	a0, vlenb
	li	a1, 169
	mul	a0, a0, a1
	add	a0, sp, a0
	addi	a0, a0, 208
	vs8r.v	v8, (a0)                        # Unknown-size Folded Spill
	csrr	a0, vlenb
	li	a1, 177
	mul	a0, a0, a1
	add	a0, sp, a0
	addi	a0, a0, 208
	vs8r.v	v8, (a0)                        # Unknown-size Folded Spill
	csrr	a0, vlenb
	li	a1, 185
	mul	a0, a0, a1
	add	a0, sp, a0
	addi	a0, a0, 208
	vs8r.v	v8, (a0)                        # Unknown-size Folded Spill
	csrr	a0, vlenb
	li	a1, 193
	mul	a0, a0, a1
	add	a0, sp, a0
	addi	a0, a0, 208
	vs8r.v	v8, (a0)                        # Unknown-size Folded Spill
	csrr	a0, vlenb
	li	a1, 201
	mul	a0, a0, a1
	add	a0, sp, a0
	addi	a0, a0, 208
	vs8r.v	v8, (a0)                        # Unknown-size Folded Spill
	csrr	a0, vlenb
	li	a1, 209
	mul	a0, a0, a1
	add	a0, sp, a0
	addi	a0, a0, 208
	vs8r.v	v8, (a0)                        # Unknown-size Folded Spill
	csrr	a0, vlenb
	li	a1, 217
	mul	a0, a0, a1
	add	a0, sp, a0
	addi	a0, a0, 208
	vs8r.v	v8, (a0)                        # Unknown-size Folded Spill
	csrr	a0, vlenb
	li	a1, 225
	mul	a0, a0, a1
	add	a0, sp, a0
	addi	a0, a0, 208
	vs8r.v	v8, (a0)                        # Unknown-size Folded Spill
	csrr	a0, vlenb
	li	a1, 233
	mul	a0, a0, a1
	add	a0, sp, a0
	addi	a0, a0, 208
	vs8r.v	v8, (a0)                        # Unknown-size Folded Spill
	csrr	a0, vlenb
	li	a1, 241
	mul	a0, a0, a1
	add	a0, sp, a0
	addi	a0, a0, 208
	vs8r.v	v8, (a0)                        # Unknown-size Folded Spill
	csrr	a0, vlenb
	li	a1, 249
	mul	a0, a0, a1
	add	a0, sp, a0
	addi	a0, a0, 208
	vs8r.v	v8, (a0)                        # Unknown-size Folded Spill
	csrr	a0, vlenb
	slli	a1, a0, 8
	add	a0, a1, a0
	add	a0, sp, a0
	addi	a0, a0, 208
	vs8r.v	v8, (a0)                        # Unknown-size Folded Spill
	csrr	a0, vlenb
	li	a1, 273
	mul	a0, a0, a1
	add	a0, sp, a0
	addi	a0, a0, 208
	vs8r.v	v8, (a0)                        # Unknown-size Folded Spill
	csrr	a0, vlenb
	li	a1, 289
	mul	a0, a0, a1
	add	a0, sp, a0
	addi	a0, a0, 208
	vs8r.v	v8, (a0)                        # Unknown-size Folded Spill
	csrr	a0, vlenb
	li	a1, 313
	mul	a0, a0, a1
	add	a0, sp, a0
	addi	a0, a0, 208
	vs8r.v	v8, (a0)                        # Unknown-size Folded Spill
	csrr	a0, vlenb
	li	a1, 329
	mul	a0, a0, a1
	add	a0, sp, a0
	addi	a0, a0, 208
	vs8r.v	v8, (a0)                        # Unknown-size Folded Spill
	csrr	a0, vlenb
	li	a1, 345
	mul	a0, a0, a1
	add	a0, sp, a0
	addi	a0, a0, 208
	vs8r.v	v8, (a0)                        # Unknown-size Folded Spill
	csrr	a0, vlenb
	li	a1, 361
	mul	a0, a0, a1
	add	a0, sp, a0
	addi	a0, a0, 208
	vs8r.v	v8, (a0)                        # Unknown-size Folded Spill
	csrr	a0, vlenb
	li	a1, 369
	mul	a0, a0, a1
	add	a0, sp, a0
	addi	a0, a0, 208
	vs8r.v	v8, (a0)                        # Unknown-size Folded Spill
	csrr	a0, vlenb
	li	a1, 385
	mul	a0, a0, a1
	add	a0, sp, a0
	addi	a0, a0, 208
	vs8r.v	v8, (a0)                        # Unknown-size Folded Spill
	csrr	a0, vlenb
	li	a1, 401
	mul	a0, a0, a1
	add	a0, sp, a0
	addi	a0, a0, 208
	vs8r.v	v8, (a0)                        # Unknown-size Folded Spill
	csrr	a0, vlenb
	li	a1, 417
	mul	a0, a0, a1
	add	a0, sp, a0
	addi	a0, a0, 208
	vs8r.v	v8, (a0)                        # Unknown-size Folded Spill
	csrr	a0, vlenb
	li	a1, 433
	mul	a0, a0, a1
	add	a0, sp, a0
	addi	a0, a0, 208
	vs8r.v	v8, (a0)                        # Unknown-size Folded Spill
	csrr	a0, vlenb
	li	a1, 449
	mul	a0, a0, a1
	add	a0, sp, a0
	addi	a0, a0, 208
	vs8r.v	v8, (a0)                        # Unknown-size Folded Spill
	csrr	a0, vlenb
	li	a1, 465
	mul	a0, a0, a1
	add	a0, sp, a0
	addi	a0, a0, 208
	vs8r.v	v8, (a0)                        # Unknown-size Folded Spill
	csrr	a0, vlenb
	li	a1, 481
	mul	a0, a0, a1
	add	a0, sp, a0
	addi	a0, a0, 208
	vs8r.v	v8, (a0)                        # Unknown-size Folded Spill
	csrr	a0, vlenb
	li	a1, 497
	mul	a0, a0, a1
	add	a0, sp, a0
	addi	a0, a0, 208
	vs8r.v	v8, (a0)                        # Unknown-size Folded Spill
	csrr	a0, vlenb
	slli	a1, a0, 9
	add	a0, a1, a0
	add	a0, sp, a0
	addi	a0, a0, 208
	vs8r.v	v8, (a0)                        # Unknown-size Folded Spill
	csrr	a0, vlenb
	li	a1, 529
	mul	a0, a0, a1
	add	a0, sp, a0
	addi	a0, a0, 208
	vs8r.v	v8, (a0)                        # Unknown-size Folded Spill
	csrr	a0, vlenb
	li	a1, 545
	mul	a0, a0, a1
	add	a0, sp, a0
	addi	a0, a0, 208
	vs8r.v	v8, (a0)                        # Unknown-size Folded Spill
	csrr	a0, vlenb
	li	a1, 561
	mul	a0, a0, a1
	add	a0, sp, a0
	addi	a0, a0, 208
	vs8r.v	v8, (a0)                        # Unknown-size Folded Spill
	csrr	a0, vlenb
	li	a1, 577
	mul	a0, a0, a1
	add	a0, sp, a0
	addi	a0, a0, 208
	vs8r.v	v8, (a0)                        # Unknown-size Folded Spill
	csrr	a0, vlenb
	li	a1, 593
	mul	a0, a0, a1
	add	a0, sp, a0
	addi	a0, a0, 208
	vs8r.v	v8, (a0)                        # Unknown-size Folded Spill
	csrr	a0, vlenb
	li	a1, 609
	mul	a0, a0, a1
	add	a0, sp, a0
	addi	a0, a0, 208
	vs8r.v	v8, (a0)                        # Unknown-size Folded Spill
	csrr	a0, vlenb
	li	a1, 625
	mul	a0, a0, a1
	add	a0, sp, a0
	addi	a0, a0, 208
	vs8r.v	v8, (a0)                        # Unknown-size Folded Spill
	csrr	a0, vlenb
	li	a1, 641
	mul	a0, a0, a1
	add	a0, sp, a0
	addi	a0, a0, 208
	vs8r.v	v8, (a0)                        # Unknown-size Folded Spill
	csrr	a0, vlenb
	li	a1, 657
	mul	a0, a0, a1
	add	a0, sp, a0
	addi	a0, a0, 208
	vs8r.v	v8, (a0)                        # Unknown-size Folded Spill
	csrr	a0, vlenb
	li	a1, 673
	mul	a0, a0, a1
	add	a0, sp, a0
	addi	a0, a0, 208
	vs8r.v	v8, (a0)                        # Unknown-size Folded Spill
	csrr	a0, vlenb
	li	a1, 689
	mul	a0, a0, a1
	add	a0, sp, a0
	addi	a0, a0, 208
	vs8r.v	v8, (a0)                        # Unknown-size Folded Spill
	csrr	a0, vlenb
	li	a1, 705
	mul	a0, a0, a1
	add	a0, sp, a0
	addi	a0, a0, 208
	vs8r.v	v8, (a0)                        # Unknown-size Folded Spill
	csrr	a0, vlenb
	li	a1, 721
	mul	a0, a0, a1
	add	a0, sp, a0
	addi	a0, a0, 208
	vs8r.v	v8, (a0)                        # Unknown-size Folded Spill
	csrr	a0, vlenb
	li	a1, 737
	mul	a0, a0, a1
	add	a0, sp, a0
	addi	a0, a0, 208
	vs8r.v	v8, (a0)                        # Unknown-size Folded Spill
	csrr	a0, vlenb
	li	a1, 753
	mul	a0, a0, a1
	add	a0, sp, a0
	addi	a0, a0, 208
	vs8r.v	v8, (a0)                        # Unknown-size Folded Spill
	csrr	a0, vlenb
	li	a1, 769
	mul	a0, a0, a1
	add	a0, sp, a0
	addi	a0, a0, 208
	vs8r.v	v8, (a0)                        # Unknown-size Folded Spill
	csrr	a0, vlenb
	li	a1, 785
	mul	a0, a0, a1
	add	a0, sp, a0
	addi	a0, a0, 208
	vs8r.v	v8, (a0)                        # Unknown-size Folded Spill
	csrr	a0, vlenb
	li	a1, 801
	mul	a0, a0, a1
	add	a0, sp, a0
	addi	a0, a0, 208
	vs8r.v	v8, (a0)                        # Unknown-size Folded Spill
	csrr	a0, vlenb
	li	a1, 105
	mul	a0, a0, a1
	add	a0, sp, a0
	addi	a0, a0, 208
	vs8r.v	v8, (a0)                        # Unknown-size Folded Spill
	csrr	a0, vlenb
	li	a1, 265
	mul	a0, a0, a1
	add	a0, sp, a0
	addi	a0, a0, 208
	vs8r.v	v8, (a0)                        # Unknown-size Folded Spill
	csrr	a0, vlenb
	li	a1, 281
	mul	a0, a0, a1
	add	a0, sp, a0
	addi	a0, a0, 208
	vs8r.v	v8, (a0)                        # Unknown-size Folded Spill
	csrr	a0, vlenb
	li	a1, 297
	mul	a0, a0, a1
	add	a0, sp, a0
	addi	a0, a0, 208
	vs8r.v	v8, (a0)                        # Unknown-size Folded Spill
	csrr	a0, vlenb
	li	a1, 305
	mul	a0, a0, a1
	add	a0, sp, a0
	addi	a0, a0, 208
	vs8r.v	v8, (a0)                        # Unknown-size Folded Spill
	csrr	a0, vlenb
	li	a1, 321
	mul	a0, a0, a1
	add	a0, sp, a0
	addi	a0, a0, 208
	vs8r.v	v8, (a0)                        # Unknown-size Folded Spill
	csrr	a0, vlenb
	li	a1, 337
	mul	a0, a0, a1
	add	a0, sp, a0
	addi	a0, a0, 208
	vs8r.v	v8, (a0)                        # Unknown-size Folded Spill
	csrr	a0, vlenb
	li	a1, 353
	mul	a0, a0, a1
	add	a0, sp, a0
	addi	a0, a0, 208
	vs8r.v	v8, (a0)                        # Unknown-size Folded Spill
	csrr	a0, vlenb
	li	a1, 377
	mul	a0, a0, a1
	add	a0, sp, a0
	addi	a0, a0, 208
	vs8r.v	v8, (a0)                        # Unknown-size Folded Spill
	csrr	a0, vlenb
	li	a1, 393
	mul	a0, a0, a1
	add	a0, sp, a0
	addi	a0, a0, 208
	vs8r.v	v8, (a0)                        # Unknown-size Folded Spill
	csrr	a0, vlenb
	li	a1, 409
	mul	a0, a0, a1
	add	a0, sp, a0
	addi	a0, a0, 208
	vs8r.v	v8, (a0)                        # Unknown-size Folded Spill
	csrr	a0, vlenb
	li	a1, 425
	mul	a0, a0, a1
	add	a0, sp, a0
	addi	a0, a0, 208
	vs8r.v	v8, (a0)                        # Unknown-size Folded Spill
	csrr	a0, vlenb
	li	a1, 441
	mul	a0, a0, a1
	add	a0, sp, a0
	addi	a0, a0, 208
	vs8r.v	v8, (a0)                        # Unknown-size Folded Spill
	csrr	a0, vlenb
	li	a1, 457
	mul	a0, a0, a1
	add	a0, sp, a0
	addi	a0, a0, 208
	vs8r.v	v8, (a0)                        # Unknown-size Folded Spill
	csrr	a0, vlenb
	li	a1, 473
	mul	a0, a0, a1
	add	a0, sp, a0
	addi	a0, a0, 208
	vs8r.v	v8, (a0)                        # Unknown-size Folded Spill
	csrr	a0, vlenb
	li	a1, 489
	mul	a0, a0, a1
	add	a0, sp, a0
	addi	a0, a0, 208
	vs8r.v	v8, (a0)                        # Unknown-size Folded Spill
	csrr	a0, vlenb
	li	a1, 505
	mul	a0, a0, a1
	add	a0, sp, a0
	addi	a0, a0, 208
	vs8r.v	v8, (a0)                        # Unknown-size Folded Spill
	csrr	a0, vlenb
	li	a1, 521
	mul	a0, a0, a1
	add	a0, sp, a0
	addi	a0, a0, 208
	vs8r.v	v8, (a0)                        # Unknown-size Folded Spill
	csrr	a0, vlenb
	li	a1, 537
	mul	a0, a0, a1
	add	a0, sp, a0
	addi	a0, a0, 208
	vs8r.v	v8, (a0)                        # Unknown-size Folded Spill
	csrr	a0, vlenb
	li	a1, 553
	mul	a0, a0, a1
	add	a0, sp, a0
	addi	a0, a0, 208
	vs8r.v	v8, (a0)                        # Unknown-size Folded Spill
	csrr	a0, vlenb
	li	a1, 569
	mul	a0, a0, a1
	add	a0, sp, a0
	addi	a0, a0, 208
	vs8r.v	v8, (a0)                        # Unknown-size Folded Spill
	csrr	a0, vlenb
	li	a1, 585
	mul	a0, a0, a1
	add	a0, sp, a0
	addi	a0, a0, 208
	vs8r.v	v8, (a0)                        # Unknown-size Folded Spill
	csrr	a0, vlenb
	li	a1, 601
	mul	a0, a0, a1
	add	a0, sp, a0
	addi	a0, a0, 208
	vs8r.v	v8, (a0)                        # Unknown-size Folded Spill
	csrr	a0, vlenb
	li	a1, 617
	mul	a0, a0, a1
	add	a0, sp, a0
	addi	a0, a0, 208
	vs8r.v	v8, (a0)                        # Unknown-size Folded Spill
	csrr	a0, vlenb
	li	a1, 633
	mul	a0, a0, a1
	add	a0, sp, a0
	addi	a0, a0, 208
	vs8r.v	v8, (a0)                        # Unknown-size Folded Spill
	csrr	a0, vlenb
	li	a1, 649
	mul	a0, a0, a1
	add	a0, sp, a0
	addi	a0, a0, 208
	vs8r.v	v8, (a0)                        # Unknown-size Folded Spill
	csrr	a0, vlenb
	li	a1, 665
	mul	a0, a0, a1
	add	a0, sp, a0
	addi	a0, a0, 208
	vs8r.v	v8, (a0)                        # Unknown-size Folded Spill
	csrr	a0, vlenb
	li	a1, 681
	mul	a0, a0, a1
	add	a0, sp, a0
	addi	a0, a0, 208
	vs8r.v	v8, (a0)                        # Unknown-size Folded Spill
	csrr	a0, vlenb
	li	a1, 697
	mul	a0, a0, a1
	add	a0, sp, a0
	addi	a0, a0, 208
	vs8r.v	v8, (a0)                        # Unknown-size Folded Spill
	csrr	a0, vlenb
	li	a1, 713
	mul	a0, a0, a1
	add	a0, sp, a0
	addi	a0, a0, 208
	vs8r.v	v8, (a0)                        # Unknown-size Folded Spill
	csrr	a0, vlenb
	li	a1, 729
	mul	a0, a0, a1
	add	a0, sp, a0
	addi	a0, a0, 208
	vs8r.v	v8, (a0)                        # Unknown-size Folded Spill
	csrr	a0, vlenb
	li	a1, 745
	mul	a0, a0, a1
	add	a0, sp, a0
	addi	a0, a0, 208
	vs8r.v	v8, (a0)                        # Unknown-size Folded Spill
	csrr	a0, vlenb
	li	a1, 761
	mul	a0, a0, a1
	add	a0, sp, a0
	addi	a0, a0, 208
	vs8r.v	v8, (a0)                        # Unknown-size Folded Spill
	csrr	a0, vlenb
	li	a1, 777
	mul	a0, a0, a1
	add	a0, sp, a0
	addi	a0, a0, 208
	vs8r.v	v8, (a0)                        # Unknown-size Folded Spill
	csrr	a0, vlenb
	li	a1, 793
	mul	a0, a0, a1
	add	a0, sp, a0
	addi	a0, a0, 208
	vs8r.v	v8, (a0)                        # Unknown-size Folded Spill
	csrr	a0, vlenb
	li	a1, 809
	mul	a0, a0, a1
	add	a0, sp, a0
	addi	a0, a0, 208
	vs8r.v	v8, (a0)                        # Unknown-size Folded Spill
	csrr	a0, vlenb
	li	a1, 817
	mul	a0, a0, a1
	add	a0, sp, a0
	addi	a0, a0, 208
	vs8r.v	v8, (a0)                        # Unknown-size Folded Spill
	csrr	a0, vlenb
	li	a1, 825
	mul	a0, a0, a1
	add	a0, sp, a0
	addi	a0, a0, 208
	vs8r.v	v8, (a0)                        # Unknown-size Folded Spill
	csrr	a0, vlenb
	li	a1, 833
	mul	a0, a0, a1
	add	a0, sp, a0
	addi	a0, a0, 208
	vs8r.v	v8, (a0)                        # Unknown-size Folded Spill
	csrr	a0, vlenb
	li	a1, 841
	mul	a0, a0, a1
	add	a0, sp, a0
	addi	a0, a0, 208
	vs8r.v	v8, (a0)                        # Unknown-size Folded Spill
	csrr	a0, vlenb
	li	a1, 849
	mul	a0, a0, a1
	add	a0, sp, a0
	addi	a0, a0, 208
	vs8r.v	v8, (a0)                        # Unknown-size Folded Spill
	csrr	a0, vlenb
	li	a1, 857
	mul	a0, a0, a1
	add	a0, sp, a0
	addi	a0, a0, 208
	vs8r.v	v8, (a0)                        # Unknown-size Folded Spill
	csrr	a0, vlenb
	li	a1, 865
	mul	a0, a0, a1
	add	a0, sp, a0
	addi	a0, a0, 208
	vs8r.v	v8, (a0)                        # Unknown-size Folded Spill
	csrr	a0, vlenb
	li	a1, 873
	mul	a0, a0, a1
	add	a0, sp, a0
	addi	a0, a0, 208
	vs8r.v	v8, (a0)                        # Unknown-size Folded Spill
	csrr	a0, vlenb
	li	a1, 881
	mul	a0, a0, a1
	add	a0, sp, a0
	addi	a0, a0, 208
	vs8r.v	v8, (a0)                        # Unknown-size Folded Spill
	csrr	a0, vlenb
	li	a1, 889
	mul	a0, a0, a1
	add	a0, sp, a0
	addi	a0, a0, 208
	vs8r.v	v8, (a0)                        # Unknown-size Folded Spill
	csrr	a0, vlenb
	li	a1, 905
	mul	a0, a0, a1
	add	a0, sp, a0
	addi	a0, a0, 208
	vs8r.v	v8, (a0)                        # Unknown-size Folded Spill
	csrr	a0, vlenb
	li	a1, 921
	mul	a0, a0, a1
	add	a0, sp, a0
	addi	a0, a0, 208
	vs8r.v	v8, (a0)                        # Unknown-size Folded Spill
	csrr	a0, vlenb
	li	a1, 937
	mul	a0, a0, a1
	add	a0, sp, a0
	addi	a0, a0, 208
	vs8r.v	v8, (a0)                        # Unknown-size Folded Spill
	csrr	a0, vlenb
	li	a1, 953
	mul	a0, a0, a1
	add	a0, sp, a0
	addi	a0, a0, 208
	vs8r.v	v8, (a0)                        # Unknown-size Folded Spill
	csrr	a0, vlenb
	li	a1, 969
	mul	a0, a0, a1
	add	a0, sp, a0
	addi	a0, a0, 208
	vs8r.v	v8, (a0)                        # Unknown-size Folded Spill
	csrr	a0, vlenb
	li	a1, 985
	mul	a0, a0, a1
	add	a0, sp, a0
	addi	a0, a0, 208
	vs8r.v	v8, (a0)                        # Unknown-size Folded Spill
	csrr	a0, vlenb
	li	a1, 1001
	mul	a0, a0, a1
	add	a0, sp, a0
	addi	a0, a0, 208
	vs8r.v	v8, (a0)                        # Unknown-size Folded Spill
	csrr	a0, vlenb
	li	a1, 1009
	mul	a0, a0, a1
	add	a0, sp, a0
	addi	a0, a0, 208
	vs8r.v	v8, (a0)                        # Unknown-size Folded Spill
	csrr	a0, vlenb
	slli	a1, a0, 10
	add	a0, a1, a0
	add	a0, sp, a0
	addi	a0, a0, 208
	vs8r.v	v8, (a0)                        # Unknown-size Folded Spill
	csrr	a0, vlenb
	li	a1, 1041
	mul	a0, a0, a1
	add	a0, sp, a0
	addi	a0, a0, 208
	vs8r.v	v8, (a0)                        # Unknown-size Folded Spill
	csrr	a0, vlenb
	li	a1, 1057
	mul	a0, a0, a1
	add	a0, sp, a0
	addi	a0, a0, 208
	vs8r.v	v8, (a0)                        # Unknown-size Folded Spill
	csrr	a0, vlenb
	li	a1, 1073
	mul	a0, a0, a1
	add	a0, sp, a0
	addi	a0, a0, 208
	vs8r.v	v8, (a0)                        # Unknown-size Folded Spill
	csrr	a0, vlenb
	li	a1, 1089
	mul	a0, a0, a1
	add	a0, sp, a0
	addi	a0, a0, 208
	vs8r.v	v8, (a0)                        # Unknown-size Folded Spill
	csrr	a0, vlenb
	li	a1, 1105
	mul	a0, a0, a1
	add	a0, sp, a0
	addi	a0, a0, 208
	vs8r.v	v8, (a0)                        # Unknown-size Folded Spill
	csrr	a0, vlenb
	li	a1, 1121
	mul	a0, a0, a1
	add	a0, sp, a0
	addi	a0, a0, 208
	vs8r.v	v8, (a0)                        # Unknown-size Folded Spill
	csrr	a0, vlenb
	li	a1, 1137
	mul	a0, a0, a1
	add	a0, sp, a0
	addi	a0, a0, 208
	vs8r.v	v8, (a0)                        # Unknown-size Folded Spill
	csrr	a0, vlenb
	li	a1, 1153
	mul	a0, a0, a1
	add	a0, sp, a0
	addi	a0, a0, 208
	vs8r.v	v8, (a0)                        # Unknown-size Folded Spill
	csrr	a0, vlenb
	li	a1, 1169
	mul	a0, a0, a1
	add	a0, sp, a0
	addi	a0, a0, 208
	vs8r.v	v8, (a0)                        # Unknown-size Folded Spill
	csrr	a0, vlenb
	li	a1, 1289
	mul	a0, a0, a1
	add	a0, sp, a0
	addi	a0, a0, 208
	vs8r.v	v8, (a0)                        # Unknown-size Folded Spill
	csrr	a0, vlenb
	li	a1, 897
	mul	a0, a0, a1
	add	a0, sp, a0
	addi	a0, a0, 208
	vs8r.v	v8, (a0)                        # Unknown-size Folded Spill
	csrr	a0, vlenb
	li	a1, 913
	mul	a0, a0, a1
	add	a0, sp, a0
	addi	a0, a0, 208
	vs8r.v	v8, (a0)                        # Unknown-size Folded Spill
	csrr	a0, vlenb
	li	a1, 929
	mul	a0, a0, a1
	add	a0, sp, a0
	addi	a0, a0, 208
	vs8r.v	v8, (a0)                        # Unknown-size Folded Spill
	csrr	a0, vlenb
	li	a1, 945
	mul	a0, a0, a1
	add	a0, sp, a0
	addi	a0, a0, 208
	vs8r.v	v8, (a0)                        # Unknown-size Folded Spill
	csrr	a0, vlenb
	li	a1, 961
	mul	a0, a0, a1
	add	a0, sp, a0
	addi	a0, a0, 208
	vs8r.v	v8, (a0)                        # Unknown-size Folded Spill
	csrr	a0, vlenb
	li	a1, 977
	mul	a0, a0, a1
	add	a0, sp, a0
	addi	a0, a0, 208
	vs8r.v	v8, (a0)                        # Unknown-size Folded Spill
	csrr	a0, vlenb
	li	a1, 993
	mul	a0, a0, a1
	add	a0, sp, a0
	addi	a0, a0, 208
	vs8r.v	v8, (a0)                        # Unknown-size Folded Spill
	csrr	a0, vlenb
	li	a1, 1017
	mul	a0, a0, a1
	add	a0, sp, a0
	addi	a0, a0, 208
	vs8r.v	v8, (a0)                        # Unknown-size Folded Spill
	csrr	a0, vlenb
	li	a1, 1033
	mul	a0, a0, a1
	add	a0, sp, a0
	addi	a0, a0, 208
	vs8r.v	v8, (a0)                        # Unknown-size Folded Spill
	csrr	a0, vlenb
	li	a1, 1049
	mul	a0, a0, a1
	add	a0, sp, a0
	addi	a0, a0, 208
	vs8r.v	v8, (a0)                        # Unknown-size Folded Spill
	csrr	a0, vlenb
	li	a1, 1065
	mul	a0, a0, a1
	add	a0, sp, a0
	addi	a0, a0, 208
	vs8r.v	v8, (a0)                        # Unknown-size Folded Spill
	csrr	a0, vlenb
	li	a1, 1081
	mul	a0, a0, a1
	add	a0, sp, a0
	addi	a0, a0, 208
	vs8r.v	v8, (a0)                        # Unknown-size Folded Spill
	csrr	a0, vlenb
	li	a1, 1097
	mul	a0, a0, a1
	add	a0, sp, a0
	addi	a0, a0, 208
	vs8r.v	v8, (a0)                        # Unknown-size Folded Spill
	csrr	a0, vlenb
	li	a1, 1113
	mul	a0, a0, a1
	add	a0, sp, a0
	addi	a0, a0, 208
	vs8r.v	v8, (a0)                        # Unknown-size Folded Spill
	csrr	a0, vlenb
	li	a1, 1129
	mul	a0, a0, a1
	add	a0, sp, a0
	addi	a0, a0, 208
	vs8r.v	v8, (a0)                        # Unknown-size Folded Spill
	csrr	a0, vlenb
	li	a1, 1145
	mul	a0, a0, a1
	add	a0, sp, a0
	addi	a0, a0, 208
	vs8r.v	v8, (a0)                        # Unknown-size Folded Spill
	csrr	a0, vlenb
	li	a1, 1161
	mul	a0, a0, a1
	add	a0, sp, a0
	addi	a0, a0, 208
	vs8r.v	v8, (a0)                        # Unknown-size Folded Spill
	csrr	a0, vlenb
	li	a1, 1177
	mul	a0, a0, a1
	add	a0, sp, a0
	addi	a0, a0, 208
	vs8r.v	v8, (a0)                        # Unknown-size Folded Spill
	csrr	a0, vlenb
	li	a1, 1185
	mul	a0, a0, a1
	add	a0, sp, a0
	addi	a0, a0, 208
	vs8r.v	v8, (a0)                        # Unknown-size Folded Spill
	csrr	a0, vlenb
	li	a1, 1193
	mul	a0, a0, a1
	add	a0, sp, a0
	addi	a0, a0, 208
	vs8r.v	v8, (a0)                        # Unknown-size Folded Spill
	csrr	a0, vlenb
	li	a1, 1201
	mul	a0, a0, a1
	add	a0, sp, a0
	addi	a0, a0, 208
	vs8r.v	v8, (a0)                        # Unknown-size Folded Spill
	csrr	a0, vlenb
	li	a1, 1209
	mul	a0, a0, a1
	add	a0, sp, a0
	addi	a0, a0, 208
	vs8r.v	v8, (a0)                        # Unknown-size Folded Spill
	csrr	a0, vlenb
	li	a1, 1217
	mul	a0, a0, a1
	add	a0, sp, a0
	addi	a0, a0, 208
	vs8r.v	v8, (a0)                        # Unknown-size Folded Spill
	csrr	a0, vlenb
	li	a1, 1225
	mul	a0, a0, a1
	add	a0, sp, a0
	addi	a0, a0, 208
	vs8r.v	v8, (a0)                        # Unknown-size Folded Spill
	csrr	a0, vlenb
	li	a1, 1233
	mul	a0, a0, a1
	add	a0, sp, a0
	addi	a0, a0, 208
	vs8r.v	v8, (a0)                        # Unknown-size Folded Spill
	csrr	a0, vlenb
	li	a1, 1241
	mul	a0, a0, a1
	add	a0, sp, a0
	addi	a0, a0, 208
	vs8r.v	v8, (a0)                        # Unknown-size Folded Spill
	csrr	a0, vlenb
	li	a1, 1249
	mul	a0, a0, a1
	add	a0, sp, a0
	addi	a0, a0, 208
	vs8r.v	v8, (a0)                        # Unknown-size Folded Spill
	csrr	a0, vlenb
	li	a1, 1257
	mul	a0, a0, a1
	add	a0, sp, a0
	addi	a0, a0, 208
	vs8r.v	v8, (a0)                        # Unknown-size Folded Spill
	csrr	a0, vlenb
	li	a1, 1265
	mul	a0, a0, a1
	add	a0, sp, a0
	addi	a0, a0, 208
	vs8r.v	v8, (a0)                        # Unknown-size Folded Spill
	csrr	a0, vlenb
	li	a1, 1273
	mul	a0, a0, a1
	add	a0, sp, a0
	addi	a0, a0, 208
	vs8r.v	v8, (a0)                        # Unknown-size Folded Spill
	csrr	a0, vlenb
	slli	a1, a0, 4
	add	a0, a1, a0
	add	a0, sp, a0
	addi	a0, a0, 208
	vs8r.v	v8, (a0)                        # Unknown-size Folded Spill
	csrr	a0, vlenb
	li	a1, 1281
	mul	a0, a0, a1
	add	a0, sp, a0
	addi	a0, a0, 208
	vs8r.v	v8, (a0)                        # Unknown-size Folded Spill
	li	a0, 64
.LBB0_18:                               #   Parent Loop BB0_2 Depth=1
                                        #     Parent Loop BB0_12 Depth=2
                                        # =>    This Inner Loop Header: Depth=3
	vsetvli	zero, a0, e32, m8, ta, ma
	vid.v	v8
	ld	s6, 184(sp)                     # 8-byte Folded Reload
	blt	a2, s6, .LBB0_19
	j	.LBB0_20
.LBB0_19:                               #   in Loop: Header=BB0_18 Depth=3
	ld	a3, 128(sp)                     # 8-byte Folded Reload
	vle8.v	v18, (a3)
	ld	a1, 136(sp)                     # 8-byte Folded Reload
	vmslt.vx	v17, v8, a1
	vsext.vf4	v8, v18
	vmslt.vx	v18, v8, a1
	vsetivli	zero, 16, e8, m1, tu, ma
	vslideup.vi	v17, v18, 8
	vsetvli	zero, a0, e32, m8, ta, ma
	ld	a3, 120(sp)                     # 8-byte Folded Reload
	vle32.v	v8, (a3)
	vmslt.vx	v18, v8, a1
	vsetivli	zero, 24, e8, m1, tu, ma
	vslideup.vi	v17, v18, 16
	vsetivli	zero, 4, e64, m1, ta, ma
	ld	a3, 112(sp)                     # 8-byte Folded Reload
	vle64.v	v8, (a3)
	li	a0, 256
	vsetvli	zero, a0, e8, m8, ta, ma
	vmand.mm	v8, v17, v8
	ld	s6, 176(sp)                     # 8-byte Folded Reload
	add	s6, a2, s6
	slli	s6, s6, 2
	ld	s7, 168(sp)                     # 8-byte Folded Reload
	add	s6, s7, s6
	flw	fa5, 0(s6)
	ld	s6, 160(sp)                     # 8-byte Folded Reload
	mul	s6, a2, s6
	ld	a0, 192(sp)                     # 8-byte Folded Reload
	add	s6, s6, a0
	slli	s6, s6, 2
	ld	s7, 152(sp)                     # 8-byte Folded Reload
	add	s6, s7, s6
	vsetivli	zero, 16, e8, m1, ta, ma
	vslidedown.vi	v0, v8, 16
	li	a0, 64
	vsetvli	zero, a0, e32, m8, ta, mu
	vmv.v.i	v24, 0
	addi	s7, s6, 512
	vmv.v.i	v16, 0
	vle32.v	v16, (s7), v0.t
	csrr	a0, vlenb
	slli	a1, a0, 3
	add	a0, a1, a0
	add	a0, sp, a0
	addi	a0, a0, 208
	vs8r.v	v16, (a0)                       # Unknown-size Folded Spill
	vsetivli	zero, 8, e8, mf2, ta, ma
	addi	s7, s6, 256
	vslidedown.vi	v0, v8, 8
	li	a0, 64
	vsetvli	zero, a0, e32, m8, ta, mu
	vmv8r.v	v16, v24
	vle32.v	v16, (s7), v0.t
	csrr	a0, vlenb
	add	a0, sp, a0
	addi	a0, a0, 208
	vs8r.v	v16, (a0)                       # Unknown-size Folded Spill
	vmv1r.v	v0, v8
	vle32.v	v24, (s6), v0.t
	vsetivli	zero, 2, e32, m8, tu, ma
	csrr	a0, vlenb
	li	a1, 25
	mul	a0, a0, a1
	add	a0, sp, a0
	addi	a0, a0, 208
	vl8r.v	v8, (a0)                        # Unknown-size Folded Reload
	csrr	a0, vlenb
	slli	a1, a0, 4
	add	a0, a1, a0
	add	a0, sp, a0
	addi	a0, a0, 208
	vl8r.v	v16, (a0)                       # Unknown-size Folded Reload
	vslideup.vi	v16, v8, 1
	vsetivli	zero, 3, e32, m8, tu, ma
	csrr	a0, vlenb
	slli	a1, a0, 5
	add	a0, a1, a0
	add	a0, sp, a0
	addi	a0, a0, 208
	vl8r.v	v8, (a0)                        # Unknown-size Folded Reload
	vslideup.vi	v16, v8, 2
	vsetivli	zero, 4, e32, m8, tu, ma
	csrr	a0, vlenb
	li	a1, 41
	mul	a0, a0, a1
	add	a0, sp, a0
	addi	a0, a0, 208
	vl8r.v	v8, (a0)                        # Unknown-size Folded Reload
	vslideup.vi	v16, v8, 3
	vsetivli	zero, 5, e32, m8, tu, ma
	csrr	a0, vlenb
	li	a1, 49
	mul	a0, a0, a1
	add	a0, sp, a0
	addi	a0, a0, 208
	vl8r.v	v8, (a0)                        # Unknown-size Folded Reload
	vslideup.vi	v16, v8, 4
	vsetivli	zero, 6, e32, m8, tu, ma
	csrr	a0, vlenb
	li	a1, 57
	mul	a0, a0, a1
	add	a0, sp, a0
	addi	a0, a0, 208
	vl8r.v	v8, (a0)                        # Unknown-size Folded Reload
	vslideup.vi	v16, v8, 5
	vsetivli	zero, 7, e32, m8, tu, ma
	csrr	a0, vlenb
	slli	a1, a0, 6
	add	a0, a1, a0
	add	a0, sp, a0
	addi	a0, a0, 208
	vl8r.v	v8, (a0)                        # Unknown-size Folded Reload
	vslideup.vi	v16, v8, 6
	vsetivli	zero, 8, e32, m8, tu, ma
	csrr	a0, vlenb
	li	a1, 73
	mul	a0, a0, a1
	add	a0, sp, a0
	addi	a0, a0, 208
	vl8r.v	v8, (a0)                        # Unknown-size Folded Reload
	vslideup.vi	v16, v8, 7
	vsetivli	zero, 9, e32, m8, tu, ma
	csrr	a0, vlenb
	li	a1, 81
	mul	a0, a0, a1
	add	a0, sp, a0
	addi	a0, a0, 208
	vl8r.v	v8, (a0)                        # Unknown-size Folded Reload
	vslideup.vi	v16, v8, 8
	vsetivli	zero, 10, e32, m8, tu, ma
	csrr	a0, vlenb
	li	a1, 89
	mul	a0, a0, a1
	add	a0, sp, a0
	addi	a0, a0, 208
	vl8r.v	v8, (a0)                        # Unknown-size Folded Reload
	vslideup.vi	v16, v8, 9
	vsetivli	zero, 11, e32, m8, tu, ma
	csrr	a0, vlenb
	li	a1, 97
	mul	a0, a0, a1
	add	a0, sp, a0
	addi	a0, a0, 208
	vl8r.v	v8, (a0)                        # Unknown-size Folded Reload
	vslideup.vi	v16, v8, 10
	vsetivli	zero, 12, e32, m8, tu, ma
	csrr	a0, vlenb
	li	a1, 113
	mul	a0, a0, a1
	add	a0, sp, a0
	addi	a0, a0, 208
	vl8r.v	v8, (a0)                        # Unknown-size Folded Reload
	vslideup.vi	v16, v8, 11
	vsetivli	zero, 13, e32, m8, tu, ma
	csrr	a0, vlenb
	li	a1, 121
	mul	a0, a0, a1
	add	a0, sp, a0
	addi	a0, a0, 208
	vl8r.v	v8, (a0)                        # Unknown-size Folded Reload
	vslideup.vi	v16, v8, 12
	vsetivli	zero, 14, e32, m8, tu, ma
	csrr	a0, vlenb
	slli	a1, a0, 7
	add	a0, a1, a0
	add	a0, sp, a0
	addi	a0, a0, 208
	vl8r.v	v8, (a0)                        # Unknown-size Folded Reload
	vslideup.vi	v16, v8, 13
	vsetivli	zero, 15, e32, m8, tu, ma
	csrr	a0, vlenb
	li	a1, 137
	mul	a0, a0, a1
	add	a0, sp, a0
	addi	a0, a0, 208
	vl8r.v	v8, (a0)                        # Unknown-size Folded Reload
	vslideup.vi	v16, v8, 14
	vsetivli	zero, 16, e32, m8, tu, ma
	csrr	a0, vlenb
	li	a1, 145
	mul	a0, a0, a1
	add	a0, sp, a0
	addi	a0, a0, 208
	vl8r.v	v8, (a0)                        # Unknown-size Folded Reload
	vslideup.vi	v16, v8, 15
	vsetivli	zero, 17, e32, m8, tu, ma
	csrr	a0, vlenb
	li	a1, 153
	mul	a0, a0, a1
	add	a0, sp, a0
	addi	a0, a0, 208
	vl8r.v	v8, (a0)                        # Unknown-size Folded Reload
	vslideup.vi	v16, v8, 16
	vsetivli	zero, 18, e32, m8, tu, ma
	csrr	a0, vlenb
	li	a1, 161
	mul	a0, a0, a1
	add	a0, sp, a0
	addi	a0, a0, 208
	vl8r.v	v8, (a0)                        # Unknown-size Folded Reload
	vslideup.vi	v16, v8, 17
	vsetivli	zero, 19, e32, m8, tu, ma
	csrr	a0, vlenb
	li	a1, 169
	mul	a0, a0, a1
	add	a0, sp, a0
	addi	a0, a0, 208
	vl8r.v	v8, (a0)                        # Unknown-size Folded Reload
	vslideup.vi	v16, v8, 18
	vsetivli	zero, 20, e32, m8, tu, ma
	csrr	a0, vlenb
	li	a1, 177
	mul	a0, a0, a1
	add	a0, sp, a0
	addi	a0, a0, 208
	vl8r.v	v8, (a0)                        # Unknown-size Folded Reload
	vslideup.vi	v16, v8, 19
	vsetivli	zero, 21, e32, m8, tu, ma
	csrr	a0, vlenb
	li	a1, 185
	mul	a0, a0, a1
	add	a0, sp, a0
	addi	a0, a0, 208
	vl8r.v	v8, (a0)                        # Unknown-size Folded Reload
	vslideup.vi	v16, v8, 20
	vsetivli	zero, 22, e32, m8, tu, ma
	csrr	a0, vlenb
	li	a1, 193
	mul	a0, a0, a1
	add	a0, sp, a0
	addi	a0, a0, 208
	vl8r.v	v8, (a0)                        # Unknown-size Folded Reload
	vslideup.vi	v16, v8, 21
	vsetivli	zero, 23, e32, m8, tu, ma
	csrr	a0, vlenb
	li	a1, 201
	mul	a0, a0, a1
	add	a0, sp, a0
	addi	a0, a0, 208
	vl8r.v	v8, (a0)                        # Unknown-size Folded Reload
	vslideup.vi	v16, v8, 22
	vsetivli	zero, 24, e32, m8, tu, ma
	csrr	a0, vlenb
	li	a1, 209
	mul	a0, a0, a1
	add	a0, sp, a0
	addi	a0, a0, 208
	vl8r.v	v8, (a0)                        # Unknown-size Folded Reload
	vslideup.vi	v16, v8, 23
	vsetivli	zero, 25, e32, m8, tu, ma
	csrr	a0, vlenb
	li	a1, 217
	mul	a0, a0, a1
	add	a0, sp, a0
	addi	a0, a0, 208
	vl8r.v	v8, (a0)                        # Unknown-size Folded Reload
	vslideup.vi	v16, v8, 24
	vsetivli	zero, 26, e32, m8, tu, ma
	csrr	a0, vlenb
	li	a1, 225
	mul	a0, a0, a1
	add	a0, sp, a0
	addi	a0, a0, 208
	vl8r.v	v8, (a0)                        # Unknown-size Folded Reload
	vslideup.vi	v16, v8, 25
	vsetivli	zero, 27, e32, m8, tu, ma
	csrr	a0, vlenb
	li	a1, 233
	mul	a0, a0, a1
	add	a0, sp, a0
	addi	a0, a0, 208
	vl8r.v	v8, (a0)                        # Unknown-size Folded Reload
	vslideup.vi	v16, v8, 26
	vsetivli	zero, 28, e32, m8, tu, ma
	csrr	a0, vlenb
	li	a1, 241
	mul	a0, a0, a1
	add	a0, sp, a0
	addi	a0, a0, 208
	vl8r.v	v8, (a0)                        # Unknown-size Folded Reload
	vslideup.vi	v16, v8, 27
	vsetivli	zero, 29, e32, m8, tu, ma
	csrr	a0, vlenb
	li	a1, 249
	mul	a0, a0, a1
	add	a0, sp, a0
	addi	a0, a0, 208
	vl8r.v	v8, (a0)                        # Unknown-size Folded Reload
	vslideup.vi	v16, v8, 28
	vsetivli	zero, 30, e32, m8, tu, ma
	csrr	a0, vlenb
	slli	a1, a0, 8
	add	a0, a1, a0
	add	a0, sp, a0
	addi	a0, a0, 208
	vl8r.v	v8, (a0)                        # Unknown-size Folded Reload
	vslideup.vi	v16, v8, 29
	vsetivli	zero, 31, e32, m8, tu, ma
	csrr	a0, vlenb
	li	a1, 273
	mul	a0, a0, a1
	add	a0, sp, a0
	addi	a0, a0, 208
	vl8r.v	v8, (a0)                        # Unknown-size Folded Reload
	vslideup.vi	v16, v8, 30
	li	a0, 32
	vsetvli	zero, a0, e32, m8, tu, ma
	li	a0, 32
	csrr	a1, vlenb
	li	a3, 289
	mul	a1, a1, a3
	add	a1, sp, a1
	addi	a1, a1, 208
	vl8r.v	v8, (a1)                        # Unknown-size Folded Reload
	vslideup.vi	v16, v8, 31
	li	a1, 33
	vsetvli	zero, a1, e32, m8, tu, ma
	li	a1, 33
	csrr	a3, vlenb
	li	a4, 313
	mul	a3, a3, a4
	add	a3, sp, a3
	addi	a3, a3, 208
	vl8r.v	v8, (a3)                        # Unknown-size Folded Reload
	vslideup.vx	v16, v8, a0
	li	a0, 34
	vsetvli	zero, a0, e32, m8, tu, ma
	li	a0, 34
	csrr	a3, vlenb
	li	a4, 329
	mul	a3, a3, a4
	add	a3, sp, a3
	addi	a3, a3, 208
	vl8r.v	v8, (a3)                        # Unknown-size Folded Reload
	vslideup.vx	v16, v8, a1
	li	a1, 35
	vsetvli	zero, a1, e32, m8, tu, ma
	li	a1, 35
	csrr	a3, vlenb
	li	a4, 345
	mul	a3, a3, a4
	add	a3, sp, a3
	addi	a3, a3, 208
	vl8r.v	v8, (a3)                        # Unknown-size Folded Reload
	vslideup.vx	v16, v8, a0
	li	a3, 36
	vsetvli	zero, a3, e32, m8, tu, ma
	li	a3, 36
	csrr	a0, vlenb
	li	a4, 361
	mul	a0, a0, a4
	add	a0, sp, a0
	addi	a0, a0, 208
	vl8r.v	v8, (a0)                        # Unknown-size Folded Reload
	vslideup.vx	v16, v8, a1
	li	a1, 37
	vsetvli	zero, a1, e32, m8, tu, ma
	li	a1, 37
	csrr	a0, vlenb
	li	a4, 369
	mul	a0, a0, a4
	add	a0, sp, a0
	addi	a0, a0, 208
	vl8r.v	v8, (a0)                        # Unknown-size Folded Reload
	vslideup.vx	v16, v8, a3
	li	a3, 38
	vsetvli	zero, a3, e32, m8, tu, ma
	li	a3, 38
	csrr	a0, vlenb
	li	a4, 385
	mul	a0, a0, a4
	add	a0, sp, a0
	addi	a0, a0, 208
	vl8r.v	v8, (a0)                        # Unknown-size Folded Reload
	vslideup.vx	v16, v8, a1
	li	a4, 39
	vsetvli	zero, a4, e32, m8, tu, ma
	li	a4, 39
	csrr	a0, vlenb
	li	a1, 401
	mul	a0, a0, a1
	add	a0, sp, a0
	addi	a0, a0, 208
	vl8r.v	v8, (a0)                        # Unknown-size Folded Reload
	vslideup.vx	v16, v8, a3
	li	a1, 38
	li	a0, 40
	vsetvli	zero, a0, e32, m8, tu, ma
	li	a3, 40
	csrr	a0, vlenb
	li	a5, 417
	mul	a0, a0, a5
	add	a0, sp, a0
	addi	a0, a0, 208
	vl8r.v	v8, (a0)                        # Unknown-size Folded Reload
	vslideup.vx	v16, v8, a4
	li	a0, 39
	li	s7, 41
	vsetvli	zero, s7, e32, m8, tu, ma
	csrr	a4, vlenb
	li	a5, 433
	mul	a4, a4, a5
	add	a4, sp, a4
	addi	a4, a4, 208
	vl8r.v	v8, (a4)                        # Unknown-size Folded Reload
	vslideup.vx	v16, v8, a3
	li	t3, 40
	li	s6, 42
	vsetvli	zero, s6, e32, m8, tu, ma
	csrr	a3, vlenb
	li	a4, 449
	mul	a3, a3, a4
	add	a3, sp, a3
	addi	a3, a3, 208
	vl8r.v	v8, (a3)                        # Unknown-size Folded Reload
	vslideup.vx	v16, v8, s7
	li	s4, 43
	vsetvli	zero, s4, e32, m8, tu, ma
	csrr	a3, vlenb
	li	a4, 465
	mul	a3, a3, a4
	add	a3, sp, a3
	addi	a3, a3, 208
	vl8r.v	v8, (a3)                        # Unknown-size Folded Reload
	vslideup.vx	v16, v8, s6
	li	t4, 44
	vsetvli	zero, t4, e32, m8, tu, ma
	csrr	a3, vlenb
	li	a4, 481
	mul	a3, a3, a4
	add	a3, sp, a3
	addi	a3, a3, 208
	vl8r.v	v8, (a3)                        # Unknown-size Folded Reload
	vslideup.vx	v16, v8, s4
	li	s10, 45
	vsetvli	zero, s10, e32, m8, tu, ma
	csrr	a3, vlenb
	li	a4, 497
	mul	a3, a3, a4
	add	a3, sp, a3
	addi	a3, a3, 208
	vl8r.v	v8, (a3)                        # Unknown-size Folded Reload
	vslideup.vx	v16, v8, t4
	li	s11, 46
	vsetvli	zero, s11, e32, m8, tu, ma
	csrr	a3, vlenb
	slli	a4, a3, 9
	add	a3, a4, a3
	add	a3, sp, a3
	addi	a3, a3, 208
	vl8r.v	v8, (a3)                        # Unknown-size Folded Reload
	vslideup.vx	v16, v8, s10
	li	ra, 47
	vsetvli	zero, ra, e32, m8, tu, ma
	csrr	a3, vlenb
	li	a4, 529
	mul	a3, a3, a4
	add	a3, sp, a3
	addi	a3, a3, 208
	vl8r.v	v8, (a3)                        # Unknown-size Folded Reload
	vslideup.vx	v16, v8, s11
	li	t2, 48
	vsetvli	zero, t2, e32, m8, tu, ma
	csrr	a3, vlenb
	li	a4, 545
	mul	a3, a3, a4
	add	a3, sp, a3
	addi	a3, a3, 208
	vl8r.v	v8, (a3)                        # Unknown-size Folded Reload
	vslideup.vx	v16, v8, ra
	li	t1, 49
	vsetvli	zero, t1, e32, m8, tu, ma
	csrr	a3, vlenb
	li	a4, 561
	mul	a3, a3, a4
	add	a3, sp, a3
	addi	a3, a3, 208
	vl8r.v	v8, (a3)                        # Unknown-size Folded Reload
	vslideup.vx	v16, v8, t2
	li	t0, 50
	vsetvli	zero, t0, e32, m8, tu, ma
	csrr	a3, vlenb
	li	a4, 577
	mul	a3, a3, a4
	add	a3, sp, a3
	addi	a3, a3, 208
	vl8r.v	v8, (a3)                        # Unknown-size Folded Reload
	vslideup.vx	v16, v8, t1
	li	a7, 51
	vsetvli	zero, a7, e32, m8, tu, ma
	csrr	a3, vlenb
	li	a4, 593
	mul	a3, a3, a4
	add	a3, sp, a3
	addi	a3, a3, 208
	vl8r.v	v8, (a3)                        # Unknown-size Folded Reload
	vslideup.vx	v16, v8, t0
	li	t6, 52
	vsetvli	zero, t6, e32, m8, tu, ma
	csrr	a3, vlenb
	li	a4, 609
	mul	a3, a3, a4
	add	a3, sp, a3
	addi	a3, a3, 208
	vl8r.v	v8, (a3)                        # Unknown-size Folded Reload
	vslideup.vx	v16, v8, a7
	li	s0, 53
	vsetvli	zero, s0, e32, m8, tu, ma
	csrr	a3, vlenb
	li	a4, 625
	mul	a3, a3, a4
	add	a3, sp, a3
	addi	a3, a3, 208
	vl8r.v	v8, (a3)                        # Unknown-size Folded Reload
	vslideup.vx	v16, v8, t6
	li	s1, 54
	vsetvli	zero, s1, e32, m8, tu, ma
	csrr	a3, vlenb
	li	a4, 641
	mul	a3, a3, a4
	add	a3, sp, a3
	addi	a3, a3, 208
	vl8r.v	v8, (a3)                        # Unknown-size Folded Reload
	vslideup.vx	v16, v8, s0
	li	s2, 55
	vsetvli	zero, s2, e32, m8, tu, ma
	csrr	a3, vlenb
	li	a4, 657
	mul	a3, a3, a4
	add	a3, sp, a3
	addi	a3, a3, 208
	vl8r.v	v8, (a3)                        # Unknown-size Folded Reload
	vslideup.vx	v16, v8, s1
	li	s3, 56
	vsetvli	zero, s3, e32, m8, tu, ma
	csrr	a3, vlenb
	li	a4, 673
	mul	a3, a3, a4
	add	a3, sp, a3
	addi	a3, a3, 208
	vl8r.v	v8, (a3)                        # Unknown-size Folded Reload
	vslideup.vx	v16, v8, s2
	li	s8, 57
	vsetvli	zero, s8, e32, m8, tu, ma
	csrr	a3, vlenb
	li	a4, 689
	mul	a3, a3, a4
	add	a3, sp, a3
	addi	a3, a3, 208
	vl8r.v	v8, (a3)                        # Unknown-size Folded Reload
	vslideup.vx	v16, v8, s3
	li	t5, 58
	vsetvli	zero, t5, e32, m8, tu, ma
	csrr	a3, vlenb
	li	a4, 705
	mul	a3, a3, a4
	add	a3, sp, a3
	addi	a3, a3, 208
	vl8r.v	v8, (a3)                        # Unknown-size Folded Reload
	vslideup.vx	v16, v8, s8
	li	s5, 59
	vsetvli	zero, s5, e32, m8, tu, ma
	csrr	a3, vlenb
	li	a4, 721
	mul	a3, a3, a4
	add	a3, sp, a3
	addi	a3, a3, 208
	vl8r.v	v8, (a3)                        # Unknown-size Folded Reload
	vslideup.vx	v16, v8, t5
	li	a6, 60
	vsetvli	zero, a6, e32, m8, tu, ma
	csrr	a3, vlenb
	li	a4, 737
	mul	a3, a3, a4
	add	a3, sp, a3
	addi	a3, a3, 208
	vl8r.v	v8, (a3)                        # Unknown-size Folded Reload
	vslideup.vx	v16, v8, s5
	sd	a2, 144(sp)                     # 8-byte Folded Spill
	li	a5, 61
	vsetvli	zero, a5, e32, m8, tu, ma
	csrr	a2, vlenb
	li	a3, 753
	mul	a2, a2, a3
	add	a2, sp, a2
	addi	a2, a2, 208
	vl8r.v	v8, (a2)                        # Unknown-size Folded Reload
	vslideup.vx	v16, v8, a6
	li	a4, 62
	vsetvli	zero, a4, e32, m8, tu, ma
	csrr	a2, vlenb
	li	a3, 769
	mul	a2, a2, a3
	add	a2, sp, a2
	addi	a2, a2, 208
	vl8r.v	v8, (a2)                        # Unknown-size Folded Reload
	vslideup.vx	v16, v8, a5
	li	a3, 63
	vsetvli	zero, a3, e32, m8, tu, ma
	csrr	a2, vlenb
	li	s9, 785
	mul	a2, a2, s9
	add	a2, sp, a2
	addi	a2, a2, 208
	vl8r.v	v8, (a2)                        # Unknown-size Folded Reload
	vslideup.vx	v16, v8, a4
	li	s9, 64
	vsetvli	zero, s9, e32, m8, ta, ma
	csrr	a2, vlenb
	li	s9, 801
	mul	a2, a2, s9
	add	a2, sp, a2
	addi	a2, a2, 208
	vl8r.v	v8, (a2)                        # Unknown-size Folded Reload
	vslideup.vx	v16, v8, a3
	vfmacc.vf	v16, fa5, v24
	vsetivli	zero, 1, e32, m8, ta, ma
	vslidedown.vx	v8, v16, a3
	sd	a3, 8(sp)
	csrr	a2, vlenb
	li	a3, 801
	mul	a2, a2, a3
	add	a2, sp, a2
	addi	a2, a2, 208
	vs8r.v	v8, (a2)                        # Unknown-size Folded Spill
	vslidedown.vx	v8, v16, a4
	sd	a4, 0(sp)
	csrr	a2, vlenb
	li	a3, 785
	mul	a2, a2, a3
	add	a2, sp, a2
	addi	a2, a2, 208
	vs8r.v	v8, (a2)                        # Unknown-size Folded Spill
	vslidedown.vx	v8, v16, a5
	csrr	a2, vlenb
	li	a3, 769
	mul	a2, a2, a3
	add	a2, sp, a2
	addi	a2, a2, 208
	vs8r.v	v8, (a2)                        # Unknown-size Folded Spill
	vslidedown.vx	v8, v16, a6
	csrr	a2, vlenb
	li	a3, 753
	mul	a2, a2, a3
	add	a2, sp, a2
	addi	a2, a2, 208
	vs8r.v	v8, (a2)                        # Unknown-size Folded Spill
	vslidedown.vx	v8, v16, s5
	csrr	a2, vlenb
	li	a3, 737
	mul	a2, a2, a3
	add	a2, sp, a2
	addi	a2, a2, 208
	vs8r.v	v8, (a2)                        # Unknown-size Folded Spill
	vslidedown.vx	v8, v16, t5
	csrr	a2, vlenb
	li	a3, 721
	mul	a2, a2, a3
	add	a2, sp, a2
	addi	a2, a2, 208
	vs8r.v	v8, (a2)                        # Unknown-size Folded Spill
	vslidedown.vx	v8, v16, s8
	csrr	a2, vlenb
	li	a3, 705
	mul	a2, a2, a3
	add	a2, sp, a2
	addi	a2, a2, 208
	vs8r.v	v8, (a2)                        # Unknown-size Folded Spill
	vslidedown.vx	v8, v16, s3
	csrr	a2, vlenb
	li	a3, 689
	mul	a2, a2, a3
	add	a2, sp, a2
	addi	a2, a2, 208
	vs8r.v	v8, (a2)                        # Unknown-size Folded Spill
	vslidedown.vx	v8, v16, s2
	csrr	a2, vlenb
	li	a3, 673
	mul	a2, a2, a3
	add	a2, sp, a2
	addi	a2, a2, 208
	vs8r.v	v8, (a2)                        # Unknown-size Folded Spill
	vslidedown.vx	v8, v16, s1
	csrr	a2, vlenb
	li	a3, 657
	mul	a2, a2, a3
	add	a2, sp, a2
	addi	a2, a2, 208
	vs8r.v	v8, (a2)                        # Unknown-size Folded Spill
	vslidedown.vx	v8, v16, s0
	csrr	a2, vlenb
	li	a3, 641
	mul	a2, a2, a3
	add	a2, sp, a2
	addi	a2, a2, 208
	vs8r.v	v8, (a2)                        # Unknown-size Folded Spill
	vslidedown.vx	v8, v16, t6
	csrr	a2, vlenb
	li	a3, 625
	mul	a2, a2, a3
	add	a2, sp, a2
	addi	a2, a2, 208
	vs8r.v	v8, (a2)                        # Unknown-size Folded Spill
	vslidedown.vx	v8, v16, a7
	csrr	a2, vlenb
	li	a3, 609
	mul	a2, a2, a3
	add	a2, sp, a2
	addi	a2, a2, 208
	vs8r.v	v8, (a2)                        # Unknown-size Folded Spill
	vslidedown.vx	v8, v16, t0
	csrr	a2, vlenb
	li	a3, 593
	mul	a2, a2, a3
	add	a2, sp, a2
	addi	a2, a2, 208
	vs8r.v	v8, (a2)                        # Unknown-size Folded Spill
	vslidedown.vx	v8, v16, t1
	csrr	a2, vlenb
	li	a3, 577
	mul	a2, a2, a3
	add	a2, sp, a2
	addi	a2, a2, 208
	vs8r.v	v8, (a2)                        # Unknown-size Folded Spill
	vslidedown.vx	v8, v16, t2
	csrr	a2, vlenb
	li	a3, 561
	mul	a2, a2, a3
	add	a2, sp, a2
	addi	a2, a2, 208
	vs8r.v	v8, (a2)                        # Unknown-size Folded Spill
	vslidedown.vx	v8, v16, ra
	csrr	a2, vlenb
	li	a3, 545
	mul	a2, a2, a3
	add	a2, sp, a2
	addi	a2, a2, 208
	vs8r.v	v8, (a2)                        # Unknown-size Folded Spill
	vslidedown.vx	v8, v16, s11
	csrr	a2, vlenb
	li	a3, 529
	mul	a2, a2, a3
	add	a2, sp, a2
	addi	a2, a2, 208
	vs8r.v	v8, (a2)                        # Unknown-size Folded Spill
	vslidedown.vx	v8, v16, s10
	csrr	a2, vlenb
	slli	a3, a2, 9
	add	a2, a3, a2
	add	a2, sp, a2
	addi	a2, a2, 208
	vs8r.v	v8, (a2)                        # Unknown-size Folded Spill
	vslidedown.vx	v8, v16, t4
	csrr	a2, vlenb
	li	a3, 497
	mul	a2, a2, a3
	add	a2, sp, a2
	addi	a2, a2, 208
	vs8r.v	v8, (a2)                        # Unknown-size Folded Spill
	vslidedown.vx	v8, v16, s4
	csrr	a2, vlenb
	li	a3, 481
	mul	a2, a2, a3
	add	a2, sp, a2
	addi	a2, a2, 208
	vs8r.v	v8, (a2)                        # Unknown-size Folded Spill
	vslidedown.vx	v8, v16, s6
	csrr	a2, vlenb
	li	a3, 465
	mul	a2, a2, a3
	add	a2, sp, a2
	addi	a2, a2, 208
	vs8r.v	v8, (a2)                        # Unknown-size Folded Spill
	vslidedown.vx	v8, v16, s7
	csrr	a2, vlenb
	li	a3, 449
	mul	a2, a2, a3
	add	a2, sp, a2
	addi	a2, a2, 208
	vs8r.v	v8, (a2)                        # Unknown-size Folded Spill
	vslidedown.vx	v8, v16, t3
	csrr	a2, vlenb
	li	a3, 433
	mul	a2, a2, a3
	add	a2, sp, a2
	addi	a2, a2, 208
	vs8r.v	v8, (a2)                        # Unknown-size Folded Spill
	vslidedown.vx	v8, v16, a0
	csrr	a0, vlenb
	li	a2, 417
	mul	a0, a0, a2
	add	a0, sp, a0
	addi	a0, a0, 208
	vs8r.v	v8, (a0)                        # Unknown-size Folded Spill
	vslidedown.vx	v8, v16, a1
	csrr	a0, vlenb
	li	a1, 401
	mul	a0, a0, a1
	add	a0, sp, a0
	addi	a0, a0, 208
	vs8r.v	v8, (a0)                        # Unknown-size Folded Spill
	li	a0, 37
	vslidedown.vx	v8, v16, a0
	csrr	a0, vlenb
	li	a1, 385
	mul	a0, a0, a1
	add	a0, sp, a0
	addi	a0, a0, 208
	vs8r.v	v8, (a0)                        # Unknown-size Folded Spill
	li	a2, 36
	vslidedown.vx	v8, v16, a2
	csrr	a0, vlenb
	li	a1, 369
	mul	a0, a0, a1
	add	a0, sp, a0
	addi	a0, a0, 208
	vs8r.v	v8, (a0)                        # Unknown-size Folded Spill
	li	a1, 35
	vslidedown.vx	v8, v16, a1
	csrr	a0, vlenb
	li	a3, 361
	mul	a0, a0, a3
	add	a0, sp, a0
	addi	a0, a0, 208
	vs8r.v	v8, (a0)                        # Unknown-size Folded Spill
	li	a0, 34
	vslidedown.vx	v8, v16, a0
	li	t3, 34
	csrr	a0, vlenb
	li	a3, 345
	mul	a0, a0, a3
	add	a0, sp, a0
	addi	a0, a0, 208
	vs8r.v	v8, (a0)                        # Unknown-size Folded Spill
	li	a0, 33
	vslidedown.vx	v8, v16, a0
	csrr	a3, vlenb
	li	a4, 329
	mul	a3, a3, a4
	add	a3, sp, a3
	addi	a3, a3, 208
	vs8r.v	v8, (a3)                        # Unknown-size Folded Spill
	li	s9, 32
	vslidedown.vx	v8, v16, s9
	csrr	a3, vlenb
	li	a4, 313
	mul	a3, a3, a4
	add	a3, sp, a3
	addi	a3, a3, 208
	vs8r.v	v8, (a3)                        # Unknown-size Folded Spill
	vsetivli	zero, 1, e32, m4, ta, ma
	vslidedown.vi	v8, v16, 31
	csrr	a3, vlenb
	li	a4, 289
	mul	a3, a3, a4
	add	a3, sp, a3
	addi	a3, a3, 208
	vs8r.v	v8, (a3)                        # Unknown-size Folded Spill
	vslidedown.vi	v8, v16, 30
	csrr	a3, vlenb
	li	a4, 273
	mul	a3, a3, a4
	add	a3, sp, a3
	addi	a3, a3, 208
	vs8r.v	v8, (a3)                        # Unknown-size Folded Spill
	vslidedown.vi	v8, v16, 29
	csrr	a3, vlenb
	slli	a4, a3, 8
	add	a3, a4, a3
	add	a3, sp, a3
	addi	a3, a3, 208
	vs8r.v	v8, (a3)                        # Unknown-size Folded Spill
	vslidedown.vi	v8, v16, 28
	csrr	a3, vlenb
	li	a4, 249
	mul	a3, a3, a4
	add	a3, sp, a3
	addi	a3, a3, 208
	vs8r.v	v8, (a3)                        # Unknown-size Folded Spill
	vslidedown.vi	v8, v16, 27
	csrr	a3, vlenb
	li	a4, 241
	mul	a3, a3, a4
	add	a3, sp, a3
	addi	a3, a3, 208
	vs8r.v	v8, (a3)                        # Unknown-size Folded Spill
	vslidedown.vi	v8, v16, 26
	csrr	a3, vlenb
	li	a4, 233
	mul	a3, a3, a4
	add	a3, sp, a3
	addi	a3, a3, 208
	vs8r.v	v8, (a3)                        # Unknown-size Folded Spill
	vslidedown.vi	v8, v16, 25
	csrr	a3, vlenb
	li	a4, 225
	mul	a3, a3, a4
	add	a3, sp, a3
	addi	a3, a3, 208
	vs8r.v	v8, (a3)                        # Unknown-size Folded Spill
	vslidedown.vi	v8, v16, 24
	csrr	a3, vlenb
	li	a4, 217
	mul	a3, a3, a4
	add	a3, sp, a3
	addi	a3, a3, 208
	vs8r.v	v8, (a3)                        # Unknown-size Folded Spill
	vslidedown.vi	v8, v16, 23
	csrr	a3, vlenb
	li	a4, 209
	mul	a3, a3, a4
	add	a3, sp, a3
	addi	a3, a3, 208
	vs8r.v	v8, (a3)                        # Unknown-size Folded Spill
	vslidedown.vi	v8, v16, 22
	csrr	a3, vlenb
	li	a4, 201
	mul	a3, a3, a4
	add	a3, sp, a3
	addi	a3, a3, 208
	vs8r.v	v8, (a3)                        # Unknown-size Folded Spill
	vslidedown.vi	v8, v16, 21
	csrr	a3, vlenb
	li	a4, 193
	mul	a3, a3, a4
	add	a3, sp, a3
	addi	a3, a3, 208
	vs8r.v	v8, (a3)                        # Unknown-size Folded Spill
	vslidedown.vi	v8, v16, 20
	csrr	a3, vlenb
	li	a4, 185
	mul	a3, a3, a4
	add	a3, sp, a3
	addi	a3, a3, 208
	vs8r.v	v8, (a3)                        # Unknown-size Folded Spill
	vslidedown.vi	v8, v16, 19
	csrr	a3, vlenb
	li	a4, 177
	mul	a3, a3, a4
	add	a3, sp, a3
	addi	a3, a3, 208
	vs8r.v	v8, (a3)                        # Unknown-size Folded Spill
	vslidedown.vi	v8, v16, 18
	csrr	a3, vlenb
	li	a4, 169
	mul	a3, a3, a4
	add	a3, sp, a3
	addi	a3, a3, 208
	vs8r.v	v8, (a3)                        # Unknown-size Folded Spill
	vslidedown.vi	v8, v16, 17
	csrr	a3, vlenb
	li	a4, 161
	mul	a3, a3, a4
	add	a3, sp, a3
	addi	a3, a3, 208
	vs8r.v	v8, (a3)                        # Unknown-size Folded Spill
	vslidedown.vi	v8, v16, 16
	csrr	a3, vlenb
	li	a4, 153
	mul	a3, a3, a4
	add	a3, sp, a3
	addi	a3, a3, 208
	vs8r.v	v8, (a3)                        # Unknown-size Folded Spill
	vsetivli	zero, 1, e32, m2, ta, ma
	vslidedown.vi	v8, v16, 15
	csrr	a3, vlenb
	li	a4, 145
	mul	a3, a3, a4
	add	a3, sp, a3
	addi	a3, a3, 208
	vs8r.v	v8, (a3)                        # Unknown-size Folded Spill
	vslidedown.vi	v8, v16, 14
	csrr	a3, vlenb
	li	a4, 137
	mul	a3, a3, a4
	add	a3, sp, a3
	addi	a3, a3, 208
	vs8r.v	v8, (a3)                        # Unknown-size Folded Spill
	vslidedown.vi	v8, v16, 13
	csrr	a3, vlenb
	slli	a4, a3, 7
	add	a3, a4, a3
	add	a3, sp, a3
	addi	a3, a3, 208
	vs8r.v	v8, (a3)                        # Unknown-size Folded Spill
	vslidedown.vi	v8, v16, 12
	csrr	a3, vlenb
	li	a4, 121
	mul	a3, a3, a4
	add	a3, sp, a3
	addi	a3, a3, 208
	vs8r.v	v8, (a3)                        # Unknown-size Folded Spill
	vslidedown.vi	v8, v16, 11
	csrr	a3, vlenb
	li	a4, 113
	mul	a3, a3, a4
	add	a3, sp, a3
	addi	a3, a3, 208
	vs8r.v	v8, (a3)                        # Unknown-size Folded Spill
	vslidedown.vi	v8, v16, 10
	csrr	a3, vlenb
	li	a4, 97
	mul	a3, a3, a4
	add	a3, sp, a3
	addi	a3, a3, 208
	vs8r.v	v8, (a3)                        # Unknown-size Folded Spill
	vslidedown.vi	v8, v16, 9
	csrr	a3, vlenb
	li	a4, 89
	mul	a3, a3, a4
	add	a3, sp, a3
	addi	a3, a3, 208
	vs8r.v	v8, (a3)                        # Unknown-size Folded Spill
	vslidedown.vi	v8, v16, 8
	csrr	a3, vlenb
	li	a4, 81
	mul	a3, a3, a4
	add	a3, sp, a3
	addi	a3, a3, 208
	vs8r.v	v8, (a3)                        # Unknown-size Folded Spill
	vsetivli	zero, 1, e32, m1, ta, ma
	vslidedown.vi	v8, v16, 7
	csrr	a3, vlenb
	li	a4, 73
	mul	a3, a3, a4
	add	a3, sp, a3
	addi	a3, a3, 208
	vs8r.v	v8, (a3)                        # Unknown-size Folded Spill
	vslidedown.vi	v8, v16, 6
	csrr	a3, vlenb
	slli	a4, a3, 6
	add	a3, a4, a3
	add	a3, sp, a3
	addi	a3, a3, 208
	vs8r.v	v8, (a3)                        # Unknown-size Folded Spill
	vslidedown.vi	v8, v16, 5
	csrr	a3, vlenb
	li	a4, 57
	mul	a3, a3, a4
	add	a3, sp, a3
	addi	a3, a3, 208
	vs8r.v	v8, (a3)                        # Unknown-size Folded Spill
	vslidedown.vi	v8, v16, 4
	csrr	a3, vlenb
	li	a4, 49
	mul	a3, a3, a4
	add	a3, sp, a3
	addi	a3, a3, 208
	vs8r.v	v8, (a3)                        # Unknown-size Folded Spill
	vslidedown.vi	v8, v16, 3
	csrr	a3, vlenb
	li	a4, 41
	mul	a3, a3, a4
	add	a3, sp, a3
	addi	a3, a3, 208
	vs8r.v	v8, (a3)                        # Unknown-size Folded Spill
	vslidedown.vi	v8, v16, 2
	csrr	a3, vlenb
	slli	a4, a3, 5
	add	a3, a4, a3
	add	a3, sp, a3
	addi	a3, a3, 208
	vs8r.v	v8, (a3)                        # Unknown-size Folded Spill
	vmv1r.v	v8, v16
	csrr	a3, vlenb
	slli	a4, a3, 4
	add	a3, a4, a3
	add	a3, sp, a3
	addi	a3, a3, 208
	vs8r.v	v8, (a3)                        # Unknown-size Folded Spill
	vslidedown.vi	v8, v16, 1
	csrr	a3, vlenb
	li	a4, 25
	mul	a3, a3, a4
	add	a3, sp, a3
	addi	a3, a3, 208
	vs8r.v	v8, (a3)                        # Unknown-size Folded Spill
	vsetivli	zero, 2, e32, m8, tu, ma
	csrr	a3, vlenb
	li	a4, 265
	mul	a3, a3, a4
	add	a3, sp, a3
	addi	a3, a3, 208
	vl8r.v	v8, (a3)                        # Unknown-size Folded Reload
	csrr	a3, vlenb
	li	a4, 105
	mul	a3, a3, a4
	add	a3, sp, a3
	addi	a3, a3, 208
	vl8r.v	v16, (a3)                       # Unknown-size Folded Reload
	vslideup.vi	v16, v8, 1
	vsetivli	zero, 3, e32, m8, tu, ma
	csrr	a3, vlenb
	li	a4, 281
	mul	a3, a3, a4
	add	a3, sp, a3
	addi	a3, a3, 208
	vl8r.v	v8, (a3)                        # Unknown-size Folded Reload
	vslideup.vi	v16, v8, 2
	vsetivli	zero, 4, e32, m8, tu, ma
	csrr	a3, vlenb
	li	a4, 297
	mul	a3, a3, a4
	add	a3, sp, a3
	addi	a3, a3, 208
	vl8r.v	v8, (a3)                        # Unknown-size Folded Reload
	vslideup.vi	v16, v8, 3
	vsetivli	zero, 5, e32, m8, tu, ma
	csrr	a3, vlenb
	li	a4, 305
	mul	a3, a3, a4
	add	a3, sp, a3
	addi	a3, a3, 208
	vl8r.v	v8, (a3)                        # Unknown-size Folded Reload
	vslideup.vi	v16, v8, 4
	vsetivli	zero, 6, e32, m8, tu, ma
	csrr	a3, vlenb
	li	a4, 321
	mul	a3, a3, a4
	add	a3, sp, a3
	addi	a3, a3, 208
	vl8r.v	v8, (a3)                        # Unknown-size Folded Reload
	vslideup.vi	v16, v8, 5
	vsetivli	zero, 7, e32, m8, tu, ma
	csrr	a3, vlenb
	li	a4, 337
	mul	a3, a3, a4
	add	a3, sp, a3
	addi	a3, a3, 208
	vl8r.v	v8, (a3)                        # Unknown-size Folded Reload
	vslideup.vi	v16, v8, 6
	vsetivli	zero, 8, e32, m8, tu, ma
	csrr	a3, vlenb
	li	a4, 353
	mul	a3, a3, a4
	add	a3, sp, a3
	addi	a3, a3, 208
	vl8r.v	v8, (a3)                        # Unknown-size Folded Reload
	vslideup.vi	v16, v8, 7
	vsetivli	zero, 9, e32, m8, tu, ma
	csrr	a3, vlenb
	li	a4, 377
	mul	a3, a3, a4
	add	a3, sp, a3
	addi	a3, a3, 208
	vl8r.v	v8, (a3)                        # Unknown-size Folded Reload
	vslideup.vi	v16, v8, 8
	vsetivli	zero, 10, e32, m8, tu, ma
	csrr	a3, vlenb
	li	a4, 393
	mul	a3, a3, a4
	add	a3, sp, a3
	addi	a3, a3, 208
	vl8r.v	v8, (a3)                        # Unknown-size Folded Reload
	vslideup.vi	v16, v8, 9
	vsetivli	zero, 11, e32, m8, tu, ma
	csrr	a3, vlenb
	li	a4, 409
	mul	a3, a3, a4
	add	a3, sp, a3
	addi	a3, a3, 208
	vl8r.v	v8, (a3)                        # Unknown-size Folded Reload
	vslideup.vi	v16, v8, 10
	vsetivli	zero, 12, e32, m8, tu, ma
	csrr	a3, vlenb
	li	a4, 425
	mul	a3, a3, a4
	add	a3, sp, a3
	addi	a3, a3, 208
	vl8r.v	v8, (a3)                        # Unknown-size Folded Reload
	vslideup.vi	v16, v8, 11
	vsetivli	zero, 13, e32, m8, tu, ma
	csrr	a3, vlenb
	li	a4, 441
	mul	a3, a3, a4
	add	a3, sp, a3
	addi	a3, a3, 208
	vl8r.v	v8, (a3)                        # Unknown-size Folded Reload
	vslideup.vi	v16, v8, 12
	vsetivli	zero, 14, e32, m8, tu, ma
	csrr	a3, vlenb
	li	a4, 457
	mul	a3, a3, a4
	add	a3, sp, a3
	addi	a3, a3, 208
	vl8r.v	v8, (a3)                        # Unknown-size Folded Reload
	vslideup.vi	v16, v8, 13
	vsetivli	zero, 15, e32, m8, tu, ma
	csrr	a3, vlenb
	li	a4, 473
	mul	a3, a3, a4
	add	a3, sp, a3
	addi	a3, a3, 208
	vl8r.v	v8, (a3)                        # Unknown-size Folded Reload
	vslideup.vi	v16, v8, 14
	vsetivli	zero, 16, e32, m8, tu, ma
	csrr	a3, vlenb
	li	a4, 489
	mul	a3, a3, a4
	add	a3, sp, a3
	addi	a3, a3, 208
	vl8r.v	v8, (a3)                        # Unknown-size Folded Reload
	vslideup.vi	v16, v8, 15
	vsetivli	zero, 17, e32, m8, tu, ma
	csrr	a3, vlenb
	li	a4, 505
	mul	a3, a3, a4
	add	a3, sp, a3
	addi	a3, a3, 208
	vl8r.v	v8, (a3)                        # Unknown-size Folded Reload
	vslideup.vi	v16, v8, 16
	vsetivli	zero, 18, e32, m8, tu, ma
	csrr	a3, vlenb
	li	a4, 521
	mul	a3, a3, a4
	add	a3, sp, a3
	addi	a3, a3, 208
	vl8r.v	v8, (a3)                        # Unknown-size Folded Reload
	vslideup.vi	v16, v8, 17
	vsetivli	zero, 19, e32, m8, tu, ma
	csrr	a3, vlenb
	li	a4, 537
	mul	a3, a3, a4
	add	a3, sp, a3
	addi	a3, a3, 208
	vl8r.v	v8, (a3)                        # Unknown-size Folded Reload
	vslideup.vi	v16, v8, 18
	vsetivli	zero, 20, e32, m8, tu, ma
	csrr	a3, vlenb
	li	a4, 553
	mul	a3, a3, a4
	add	a3, sp, a3
	addi	a3, a3, 208
	vl8r.v	v8, (a3)                        # Unknown-size Folded Reload
	vslideup.vi	v16, v8, 19
	vsetivli	zero, 21, e32, m8, tu, ma
	csrr	a3, vlenb
	li	a4, 569
	mul	a3, a3, a4
	add	a3, sp, a3
	addi	a3, a3, 208
	vl8r.v	v8, (a3)                        # Unknown-size Folded Reload
	vslideup.vi	v16, v8, 20
	vsetivli	zero, 22, e32, m8, tu, ma
	csrr	a3, vlenb
	li	a4, 585
	mul	a3, a3, a4
	add	a3, sp, a3
	addi	a3, a3, 208
	vl8r.v	v8, (a3)                        # Unknown-size Folded Reload
	vslideup.vi	v16, v8, 21
	vsetivli	zero, 23, e32, m8, tu, ma
	csrr	a3, vlenb
	li	a4, 601
	mul	a3, a3, a4
	add	a3, sp, a3
	addi	a3, a3, 208
	vl8r.v	v8, (a3)                        # Unknown-size Folded Reload
	vslideup.vi	v16, v8, 22
	vsetivli	zero, 24, e32, m8, tu, ma
	csrr	a3, vlenb
	li	a4, 617
	mul	a3, a3, a4
	add	a3, sp, a3
	addi	a3, a3, 208
	vl8r.v	v8, (a3)                        # Unknown-size Folded Reload
	vslideup.vi	v16, v8, 23
	vsetivli	zero, 25, e32, m8, tu, ma
	csrr	a3, vlenb
	li	a4, 633
	mul	a3, a3, a4
	add	a3, sp, a3
	addi	a3, a3, 208
	vl8r.v	v8, (a3)                        # Unknown-size Folded Reload
	vslideup.vi	v16, v8, 24
	vsetivli	zero, 26, e32, m8, tu, ma
	csrr	a3, vlenb
	li	a4, 649
	mul	a3, a3, a4
	add	a3, sp, a3
	addi	a3, a3, 208
	vl8r.v	v8, (a3)                        # Unknown-size Folded Reload
	vslideup.vi	v16, v8, 25
	vsetivli	zero, 27, e32, m8, tu, ma
	csrr	a3, vlenb
	li	a4, 665
	mul	a3, a3, a4
	add	a3, sp, a3
	addi	a3, a3, 208
	vl8r.v	v8, (a3)                        # Unknown-size Folded Reload
	vslideup.vi	v16, v8, 26
	vsetivli	zero, 28, e32, m8, tu, ma
	csrr	a3, vlenb
	li	a4, 681
	mul	a3, a3, a4
	add	a3, sp, a3
	addi	a3, a3, 208
	vl8r.v	v8, (a3)                        # Unknown-size Folded Reload
	vslideup.vi	v16, v8, 27
	vsetivli	zero, 29, e32, m8, tu, ma
	csrr	a3, vlenb
	li	a4, 697
	mul	a3, a3, a4
	add	a3, sp, a3
	addi	a3, a3, 208
	vl8r.v	v8, (a3)                        # Unknown-size Folded Reload
	vslideup.vi	v16, v8, 28
	vsetivli	zero, 30, e32, m8, tu, ma
	csrr	a3, vlenb
	li	a4, 713
	mul	a3, a3, a4
	add	a3, sp, a3
	addi	a3, a3, 208
	vl8r.v	v8, (a3)                        # Unknown-size Folded Reload
	vslideup.vi	v16, v8, 29
	vsetivli	zero, 31, e32, m8, tu, ma
	csrr	a3, vlenb
	li	a4, 729
	mul	a3, a3, a4
	add	a3, sp, a3
	addi	a3, a3, 208
	vl8r.v	v8, (a3)                        # Unknown-size Folded Reload
	vslideup.vi	v16, v8, 30
	vsetvli	zero, s9, e32, m8, tu, ma
	csrr	a3, vlenb
	li	a4, 745
	mul	a3, a3, a4
	add	a3, sp, a3
	addi	a3, a3, 208
	vl8r.v	v8, (a3)                        # Unknown-size Folded Reload
	vslideup.vi	v16, v8, 31
	vsetvli	zero, a0, e32, m8, tu, ma
	csrr	a3, vlenb
	li	a4, 761
	mul	a3, a3, a4
	ld	a4, 0(sp)
	add	a3, sp, a3
	addi	a3, a3, 208
	vl8r.v	v8, (a3)                        # Unknown-size Folded Reload
	vslideup.vx	v16, v8, s9
	vsetvli	zero, t3, e32, m8, tu, ma
	csrr	s9, vlenb
	li	a3, 777
	mul	s9, s9, a3
	ld	a3, 8(sp)
	add	s9, sp, s9
	addi	s9, s9, 208
	vl8r.v	v8, (s9)                        # Unknown-size Folded Reload
	vslideup.vx	v16, v8, a0
	vsetvli	zero, a1, e32, m8, tu, ma
	csrr	a0, vlenb
	li	s9, 793
	mul	a0, a0, s9
	add	a0, sp, a0
	addi	a0, a0, 208
	vl8r.v	v8, (a0)                        # Unknown-size Folded Reload
	vslideup.vx	v16, v8, t3
	vsetvli	zero, a2, e32, m8, tu, ma
	csrr	a0, vlenb
	li	t3, 809
	mul	a0, a0, t3
	add	a0, sp, a0
	addi	a0, a0, 208
	vl8r.v	v8, (a0)                        # Unknown-size Folded Reload
	vslideup.vx	v16, v8, a1
	li	a0, 37
	vsetvli	zero, a0, e32, m8, tu, ma
	csrr	a0, vlenb
	li	a1, 817
	mul	a0, a0, a1
	add	a0, sp, a0
	addi	a0, a0, 208
	vl8r.v	v8, (a0)                        # Unknown-size Folded Reload
	vslideup.vx	v16, v8, a2
	li	a0, 38
	vsetvli	zero, a0, e32, m8, tu, ma
	csrr	a0, vlenb
	li	a1, 825
	mul	a0, a0, a1
	add	a0, sp, a0
	addi	a0, a0, 208
	vl8r.v	v8, (a0)                        # Unknown-size Folded Reload
	li	a0, 37
	vslideup.vx	v16, v8, a0
	li	a0, 39
	vsetvli	zero, a0, e32, m8, tu, ma
	csrr	a0, vlenb
	li	a1, 833
	mul	a0, a0, a1
	add	a0, sp, a0
	addi	a0, a0, 208
	vl8r.v	v8, (a0)                        # Unknown-size Folded Reload
	li	a0, 38
	vslideup.vx	v16, v8, a0
	li	a0, 40
	vsetvli	zero, a0, e32, m8, tu, ma
	csrr	a0, vlenb
	li	a1, 841
	mul	a0, a0, a1
	add	a0, sp, a0
	addi	a0, a0, 208
	vl8r.v	v8, (a0)                        # Unknown-size Folded Reload
	li	a0, 39
	vslideup.vx	v16, v8, a0
	li	t3, 39
	vsetvli	zero, s7, e32, m8, tu, ma
	csrr	a0, vlenb
	li	a1, 849
	mul	a0, a0, a1
	add	a0, sp, a0
	addi	a0, a0, 208
	vl8r.v	v8, (a0)                        # Unknown-size Folded Reload
	li	a1, 40
	vslideup.vx	v16, v8, a1
	vsetvli	zero, s6, e32, m8, tu, ma
	csrr	a0, vlenb
	li	a2, 857
	mul	a0, a0, a2
	add	a0, sp, a0
	addi	a0, a0, 208
	vl8r.v	v8, (a0)                        # Unknown-size Folded Reload
	vslideup.vx	v16, v8, s7
	vsetvli	zero, s4, e32, m8, tu, ma
	csrr	a0, vlenb
	li	a2, 865
	mul	a0, a0, a2
	add	a0, sp, a0
	addi	a0, a0, 208
	vl8r.v	v8, (a0)                        # Unknown-size Folded Reload
	vslideup.vx	v16, v8, s6
	vsetvli	zero, t4, e32, m8, tu, ma
	csrr	a0, vlenb
	li	a2, 873
	mul	a0, a0, a2
	add	a0, sp, a0
	addi	a0, a0, 208
	vl8r.v	v8, (a0)                        # Unknown-size Folded Reload
	vslideup.vx	v16, v8, s4
	vsetvli	zero, s10, e32, m8, tu, ma
	csrr	a0, vlenb
	li	a2, 881
	mul	a0, a0, a2
	add	a0, sp, a0
	addi	a0, a0, 208
	vl8r.v	v8, (a0)                        # Unknown-size Folded Reload
	vslideup.vx	v16, v8, t4
	vsetvli	zero, s11, e32, m8, tu, ma
	csrr	a0, vlenb
	li	a2, 889
	mul	a0, a0, a2
	add	a0, sp, a0
	addi	a0, a0, 208
	vl8r.v	v8, (a0)                        # Unknown-size Folded Reload
	vslideup.vx	v16, v8, s10
	vsetvli	zero, ra, e32, m8, tu, ma
	csrr	a0, vlenb
	li	a2, 905
	mul	a0, a0, a2
	add	a0, sp, a0
	addi	a0, a0, 208
	vl8r.v	v8, (a0)                        # Unknown-size Folded Reload
	vslideup.vx	v16, v8, s11
	vsetvli	zero, t2, e32, m8, tu, ma
	csrr	a0, vlenb
	li	a2, 921
	mul	a0, a0, a2
	add	a0, sp, a0
	addi	a0, a0, 208
	vl8r.v	v8, (a0)                        # Unknown-size Folded Reload
	vslideup.vx	v16, v8, ra
	vsetvli	zero, t1, e32, m8, tu, ma
	csrr	a0, vlenb
	li	a2, 937
	mul	a0, a0, a2
	add	a0, sp, a0
	addi	a0, a0, 208
	vl8r.v	v8, (a0)                        # Unknown-size Folded Reload
	vslideup.vx	v16, v8, t2
	vsetvli	zero, t0, e32, m8, tu, ma
	csrr	a0, vlenb
	li	a2, 953
	mul	a0, a0, a2
	add	a0, sp, a0
	addi	a0, a0, 208
	vl8r.v	v8, (a0)                        # Unknown-size Folded Reload
	vslideup.vx	v16, v8, t1
	vsetvli	zero, a7, e32, m8, tu, ma
	csrr	a0, vlenb
	li	a2, 969
	mul	a0, a0, a2
	add	a0, sp, a0
	addi	a0, a0, 208
	vl8r.v	v8, (a0)                        # Unknown-size Folded Reload
	vslideup.vx	v16, v8, t0
	vsetvli	zero, t6, e32, m8, tu, ma
	csrr	a0, vlenb
	li	a2, 985
	mul	a0, a0, a2
	add	a0, sp, a0
	addi	a0, a0, 208
	vl8r.v	v8, (a0)                        # Unknown-size Folded Reload
	vslideup.vx	v16, v8, a7
	vsetvli	zero, s0, e32, m8, tu, ma
	csrr	a0, vlenb
	li	a2, 1001
	mul	a0, a0, a2
	add	a0, sp, a0
	addi	a0, a0, 208
	vl8r.v	v8, (a0)                        # Unknown-size Folded Reload
	vslideup.vx	v16, v8, t6
	vsetvli	zero, s1, e32, m8, tu, ma
	csrr	a0, vlenb
	li	a2, 1009
	mul	a0, a0, a2
	add	a0, sp, a0
	addi	a0, a0, 208
	vl8r.v	v8, (a0)                        # Unknown-size Folded Reload
	vslideup.vx	v16, v8, s0
	vsetvli	zero, s2, e32, m8, tu, ma
	csrr	a0, vlenb
	slli	a2, a0, 10
	add	a0, a2, a0
	add	a0, sp, a0
	addi	a0, a0, 208
	vl8r.v	v8, (a0)                        # Unknown-size Folded Reload
	vslideup.vx	v16, v8, s1
	vsetvli	zero, s3, e32, m8, tu, ma
	csrr	a0, vlenb
	li	a2, 1041
	mul	a0, a0, a2
	add	a0, sp, a0
	addi	a0, a0, 208
	vl8r.v	v8, (a0)                        # Unknown-size Folded Reload
	vslideup.vx	v16, v8, s2
	vsetvli	zero, s8, e32, m8, tu, ma
	csrr	a0, vlenb
	li	a2, 1057
	mul	a0, a0, a2
	add	a0, sp, a0
	addi	a0, a0, 208
	vl8r.v	v8, (a0)                        # Unknown-size Folded Reload
	vslideup.vx	v16, v8, s3
	vsetvli	zero, t5, e32, m8, tu, ma
	csrr	a0, vlenb
	li	a2, 1073
	mul	a0, a0, a2
	add	a0, sp, a0
	addi	a0, a0, 208
	vl8r.v	v8, (a0)                        # Unknown-size Folded Reload
	vslideup.vx	v16, v8, s8
	vsetvli	zero, s5, e32, m8, tu, ma
	csrr	a0, vlenb
	li	a2, 1089
	mul	a0, a0, a2
	add	a0, sp, a0
	addi	a0, a0, 208
	vl8r.v	v8, (a0)                        # Unknown-size Folded Reload
	vslideup.vx	v16, v8, t5
	vsetvli	zero, a6, e32, m8, tu, ma
	csrr	a0, vlenb
	li	a2, 1105
	mul	a0, a0, a2
	add	a0, sp, a0
	addi	a0, a0, 208
	vl8r.v	v8, (a0)                        # Unknown-size Folded Reload
	vslideup.vx	v16, v8, s5
	vsetvli	zero, a5, e32, m8, tu, ma
	csrr	a0, vlenb
	li	a2, 1121
	mul	a0, a0, a2
	add	a0, sp, a0
	addi	a0, a0, 208
	vl8r.v	v8, (a0)                        # Unknown-size Folded Reload
	vslideup.vx	v16, v8, a6
	vsetvli	zero, a4, e32, m8, tu, ma
	csrr	a0, vlenb
	li	a2, 1137
	mul	a0, a0, a2
	add	a0, sp, a0
	addi	a0, a0, 208
	vl8r.v	v8, (a0)                        # Unknown-size Folded Reload
	vslideup.vx	v16, v8, a5
	vsetvli	zero, a3, e32, m8, tu, ma
	csrr	a0, vlenb
	li	a2, 1153
	mul	a0, a0, a2
	add	a0, sp, a0
	addi	a0, a0, 208
	vl8r.v	v8, (a0)                        # Unknown-size Folded Reload
	vslideup.vx	v16, v8, a4
	li	s9, 64
	vsetvli	zero, s9, e32, m8, ta, ma
	csrr	a0, vlenb
	li	a2, 1169
	mul	a0, a0, a2
	add	a0, sp, a0
	addi	a0, a0, 208
	vl8r.v	v8, (a0)                        # Unknown-size Folded Reload
	vslideup.vx	v16, v8, a3
	csrr	a0, vlenb
	add	a0, sp, a0
	addi	a0, a0, 208
	vl8r.v	v8, (a0)                        # Unknown-size Folded Reload
	vfmacc.vf	v16, fa5, v8
	vsetivli	zero, 1, e32, m8, ta, ma
	vslidedown.vx	v8, v16, a3
	csrr	a0, vlenb
	li	a2, 1169
	mul	a0, a0, a2
	add	a0, sp, a0
	addi	a0, a0, 208
	vs8r.v	v8, (a0)                        # Unknown-size Folded Spill
	li	a0, 64
	vslidedown.vx	v8, v16, a4
	csrr	a2, vlenb
	li	a3, 1153
	mul	a2, a2, a3
	add	a2, sp, a2
	addi	a2, a2, 208
	vs8r.v	v8, (a2)                        # Unknown-size Folded Spill
	vslidedown.vx	v8, v16, a5
	ld	a2, 144(sp)                     # 8-byte Folded Reload
	csrr	a3, vlenb
	li	a4, 1137
	mul	a3, a3, a4
	add	a3, sp, a3
	addi	a3, a3, 208
	vs8r.v	v8, (a3)                        # Unknown-size Folded Spill
	vslidedown.vx	v8, v16, a6
	csrr	a3, vlenb
	li	a4, 1121
	mul	a3, a3, a4
	add	a3, sp, a3
	addi	a3, a3, 208
	vs8r.v	v8, (a3)                        # Unknown-size Folded Spill
	vslidedown.vx	v8, v16, s5
	csrr	a3, vlenb
	li	a4, 1105
	mul	a3, a3, a4
	add	a3, sp, a3
	addi	a3, a3, 208
	vs8r.v	v8, (a3)                        # Unknown-size Folded Spill
	vslidedown.vx	v8, v16, t5
	csrr	a3, vlenb
	li	a4, 1089
	mul	a3, a3, a4
	add	a3, sp, a3
	addi	a3, a3, 208
	vs8r.v	v8, (a3)                        # Unknown-size Folded Spill
	vslidedown.vx	v8, v16, s8
	csrr	a3, vlenb
	li	a4, 1073
	mul	a3, a3, a4
	add	a3, sp, a3
	addi	a3, a3, 208
	vs8r.v	v8, (a3)                        # Unknown-size Folded Spill
	vslidedown.vx	v8, v16, s3
	csrr	a3, vlenb
	li	a4, 1057
	mul	a3, a3, a4
	add	a3, sp, a3
	addi	a3, a3, 208
	vs8r.v	v8, (a3)                        # Unknown-size Folded Spill
	vslidedown.vx	v8, v16, s2
	csrr	a3, vlenb
	li	a4, 1041
	mul	a3, a3, a4
	add	a3, sp, a3
	addi	a3, a3, 208
	vs8r.v	v8, (a3)                        # Unknown-size Folded Spill
	vslidedown.vx	v8, v16, s1
	csrr	a3, vlenb
	slli	a4, a3, 10
	add	a3, a4, a3
	add	a3, sp, a3
	addi	a3, a3, 208
	vs8r.v	v8, (a3)                        # Unknown-size Folded Spill
	vslidedown.vx	v8, v16, s0
	csrr	a3, vlenb
	li	a4, 1009
	mul	a3, a3, a4
	add	a3, sp, a3
	addi	a3, a3, 208
	vs8r.v	v8, (a3)                        # Unknown-size Folded Spill
	vslidedown.vx	v8, v16, t6
	csrr	a3, vlenb
	li	a4, 1001
	mul	a3, a3, a4
	add	a3, sp, a3
	addi	a3, a3, 208
	vs8r.v	v8, (a3)                        # Unknown-size Folded Spill
	vslidedown.vx	v8, v16, a7
	csrr	a3, vlenb
	li	a4, 985
	mul	a3, a3, a4
	add	a3, sp, a3
	addi	a3, a3, 208
	vs8r.v	v8, (a3)                        # Unknown-size Folded Spill
	vslidedown.vx	v8, v16, t0
	csrr	a3, vlenb
	li	a4, 969
	mul	a3, a3, a4
	add	a3, sp, a3
	addi	a3, a3, 208
	vs8r.v	v8, (a3)                        # Unknown-size Folded Spill
	vslidedown.vx	v8, v16, t1
	csrr	a3, vlenb
	li	a4, 953
	mul	a3, a3, a4
	add	a3, sp, a3
	addi	a3, a3, 208
	vs8r.v	v8, (a3)                        # Unknown-size Folded Spill
	vslidedown.vx	v8, v16, t2
	csrr	a3, vlenb
	li	a4, 937
	mul	a3, a3, a4
	add	a3, sp, a3
	addi	a3, a3, 208
	vs8r.v	v8, (a3)                        # Unknown-size Folded Spill
	vslidedown.vx	v8, v16, ra
	csrr	a3, vlenb
	li	a4, 921
	mul	a3, a3, a4
	add	a3, sp, a3
	addi	a3, a3, 208
	vs8r.v	v8, (a3)                        # Unknown-size Folded Spill
	vslidedown.vx	v8, v16, s11
	csrr	a3, vlenb
	li	a4, 905
	mul	a3, a3, a4
	add	a3, sp, a3
	addi	a3, a3, 208
	vs8r.v	v8, (a3)                        # Unknown-size Folded Spill
	vslidedown.vx	v8, v16, s10
	csrr	a3, vlenb
	li	a4, 889
	mul	a3, a3, a4
	add	a3, sp, a3
	addi	a3, a3, 208
	vs8r.v	v8, (a3)                        # Unknown-size Folded Spill
	vslidedown.vx	v8, v16, t4
	csrr	a3, vlenb
	li	a4, 881
	mul	a3, a3, a4
	add	a3, sp, a3
	addi	a3, a3, 208
	vs8r.v	v8, (a3)                        # Unknown-size Folded Spill
	vslidedown.vx	v8, v16, s4
	csrr	a3, vlenb
	li	a4, 873
	mul	a3, a3, a4
	add	a3, sp, a3
	addi	a3, a3, 208
	vs8r.v	v8, (a3)                        # Unknown-size Folded Spill
	vslidedown.vx	v8, v16, s6
	csrr	a3, vlenb
	li	a4, 865
	mul	a3, a3, a4
	add	a3, sp, a3
	addi	a3, a3, 208
	vs8r.v	v8, (a3)                        # Unknown-size Folded Spill
	vslidedown.vx	v8, v16, s7
	csrr	a3, vlenb
	li	a4, 857
	mul	a3, a3, a4
	add	a3, sp, a3
	addi	a3, a3, 208
	vs8r.v	v8, (a3)                        # Unknown-size Folded Spill
	vslidedown.vx	v8, v16, a1
	csrr	a1, vlenb
	li	a3, 849
	mul	a1, a1, a3
	add	a1, sp, a1
	addi	a1, a1, 208
	vs8r.v	v8, (a1)                        # Unknown-size Folded Spill
	vslidedown.vx	v8, v16, t3
	csrr	a1, vlenb
	li	a3, 841
	mul	a1, a1, a3
	add	a1, sp, a1
	addi	a1, a1, 208
	vs8r.v	v8, (a1)                        # Unknown-size Folded Spill
	li	a1, 38
	vslidedown.vx	v8, v16, a1
	csrr	a1, vlenb
	li	a3, 833
	mul	a1, a1, a3
	add	a1, sp, a1
	addi	a1, a1, 208
	vs8r.v	v8, (a1)                        # Unknown-size Folded Spill
	li	a1, 37
	vslidedown.vx	v8, v16, a1
	csrr	a1, vlenb
	li	a3, 825
	mul	a1, a1, a3
	add	a1, sp, a1
	addi	a1, a1, 208
	vs8r.v	v8, (a1)                        # Unknown-size Folded Spill
	li	a1, 36
	vslidedown.vx	v8, v16, a1
	csrr	a1, vlenb
	li	a3, 817
	mul	a1, a1, a3
	add	a1, sp, a1
	addi	a1, a1, 208
	vs8r.v	v8, (a1)                        # Unknown-size Folded Spill
	li	a1, 35
	vslidedown.vx	v8, v16, a1
	csrr	a1, vlenb
	li	a3, 809
	mul	a1, a1, a3
	add	a1, sp, a1
	addi	a1, a1, 208
	vs8r.v	v8, (a1)                        # Unknown-size Folded Spill
	li	a1, 34
	vslidedown.vx	v8, v16, a1
	csrr	a1, vlenb
	li	a3, 793
	mul	a1, a1, a3
	add	a1, sp, a1
	addi	a1, a1, 208
	vs8r.v	v8, (a1)                        # Unknown-size Folded Spill
	li	a1, 33
	vslidedown.vx	v8, v16, a1
	csrr	a1, vlenb
	li	a3, 777
	mul	a1, a1, a3
	add	a1, sp, a1
	addi	a1, a1, 208
	vs8r.v	v8, (a1)                        # Unknown-size Folded Spill
	li	a1, 32
	vslidedown.vx	v8, v16, a1
	csrr	a3, vlenb
	li	a4, 761
	mul	a3, a3, a4
	add	a3, sp, a3
	addi	a3, a3, 208
	vs8r.v	v8, (a3)                        # Unknown-size Folded Spill
	vsetivli	zero, 1, e32, m4, ta, ma
	vslidedown.vi	v8, v16, 31
	csrr	a3, vlenb
	li	a4, 745
	mul	a3, a3, a4
	add	a3, sp, a3
	addi	a3, a3, 208
	vs8r.v	v8, (a3)                        # Unknown-size Folded Spill
	vslidedown.vi	v8, v16, 30
	csrr	a3, vlenb
	li	a4, 729
	mul	a3, a3, a4
	add	a3, sp, a3
	addi	a3, a3, 208
	vs8r.v	v8, (a3)                        # Unknown-size Folded Spill
	vslidedown.vi	v8, v16, 29
	csrr	a3, vlenb
	li	a4, 713
	mul	a3, a3, a4
	add	a3, sp, a3
	addi	a3, a3, 208
	vs8r.v	v8, (a3)                        # Unknown-size Folded Spill
	vslidedown.vi	v8, v16, 28
	csrr	a3, vlenb
	li	a4, 697
	mul	a3, a3, a4
	add	a3, sp, a3
	addi	a3, a3, 208
	vs8r.v	v8, (a3)                        # Unknown-size Folded Spill
	vslidedown.vi	v8, v16, 27
	csrr	a3, vlenb
	li	a4, 681
	mul	a3, a3, a4
	add	a3, sp, a3
	addi	a3, a3, 208
	vs8r.v	v8, (a3)                        # Unknown-size Folded Spill
	vslidedown.vi	v8, v16, 26
	csrr	a3, vlenb
	li	a4, 665
	mul	a3, a3, a4
	add	a3, sp, a3
	addi	a3, a3, 208
	vs8r.v	v8, (a3)                        # Unknown-size Folded Spill
	vslidedown.vi	v8, v16, 25
	csrr	a3, vlenb
	li	a4, 649
	mul	a3, a3, a4
	add	a3, sp, a3
	addi	a3, a3, 208
	vs8r.v	v8, (a3)                        # Unknown-size Folded Spill
	vslidedown.vi	v8, v16, 24
	csrr	a3, vlenb
	li	a4, 633
	mul	a3, a3, a4
	add	a3, sp, a3
	addi	a3, a3, 208
	vs8r.v	v8, (a3)                        # Unknown-size Folded Spill
	vslidedown.vi	v8, v16, 23
	csrr	a3, vlenb
	li	a4, 617
	mul	a3, a3, a4
	add	a3, sp, a3
	addi	a3, a3, 208
	vs8r.v	v8, (a3)                        # Unknown-size Folded Spill
	vslidedown.vi	v8, v16, 22
	csrr	a3, vlenb
	li	a4, 601
	mul	a3, a3, a4
	add	a3, sp, a3
	addi	a3, a3, 208
	vs8r.v	v8, (a3)                        # Unknown-size Folded Spill
	vslidedown.vi	v8, v16, 21
	csrr	a3, vlenb
	li	a4, 585
	mul	a3, a3, a4
	add	a3, sp, a3
	addi	a3, a3, 208
	vs8r.v	v8, (a3)                        # Unknown-size Folded Spill
	vslidedown.vi	v8, v16, 20
	csrr	a3, vlenb
	li	a4, 569
	mul	a3, a3, a4
	add	a3, sp, a3
	addi	a3, a3, 208
	vs8r.v	v8, (a3)                        # Unknown-size Folded Spill
	vslidedown.vi	v8, v16, 19
	csrr	a3, vlenb
	li	a4, 553
	mul	a3, a3, a4
	add	a3, sp, a3
	addi	a3, a3, 208
	vs8r.v	v8, (a3)                        # Unknown-size Folded Spill
	vslidedown.vi	v8, v16, 18
	csrr	a3, vlenb
	li	a4, 537
	mul	a3, a3, a4
	add	a3, sp, a3
	addi	a3, a3, 208
	vs8r.v	v8, (a3)                        # Unknown-size Folded Spill
	vslidedown.vi	v8, v16, 17
	csrr	a3, vlenb
	li	a4, 521
	mul	a3, a3, a4
	add	a3, sp, a3
	addi	a3, a3, 208
	vs8r.v	v8, (a3)                        # Unknown-size Folded Spill
	vslidedown.vi	v8, v16, 16
	csrr	a3, vlenb
	li	a4, 505
	mul	a3, a3, a4
	add	a3, sp, a3
	addi	a3, a3, 208
	vs8r.v	v8, (a3)                        # Unknown-size Folded Spill
	vsetivli	zero, 1, e32, m2, ta, ma
	vslidedown.vi	v8, v16, 15
	csrr	a3, vlenb
	li	a4, 489
	mul	a3, a3, a4
	add	a3, sp, a3
	addi	a3, a3, 208
	vs8r.v	v8, (a3)                        # Unknown-size Folded Spill
	vslidedown.vi	v8, v16, 14
	csrr	a3, vlenb
	li	a4, 473
	mul	a3, a3, a4
	add	a3, sp, a3
	addi	a3, a3, 208
	vs8r.v	v8, (a3)                        # Unknown-size Folded Spill
	vslidedown.vi	v8, v16, 13
	csrr	a3, vlenb
	li	a4, 457
	mul	a3, a3, a4
	add	a3, sp, a3
	addi	a3, a3, 208
	vs8r.v	v8, (a3)                        # Unknown-size Folded Spill
	vslidedown.vi	v8, v16, 12
	csrr	a3, vlenb
	li	a4, 441
	mul	a3, a3, a4
	add	a3, sp, a3
	addi	a3, a3, 208
	vs8r.v	v8, (a3)                        # Unknown-size Folded Spill
	vslidedown.vi	v8, v16, 11
	csrr	a3, vlenb
	li	a4, 425
	mul	a3, a3, a4
	add	a3, sp, a3
	addi	a3, a3, 208
	vs8r.v	v8, (a3)                        # Unknown-size Folded Spill
	vslidedown.vi	v8, v16, 10
	csrr	a3, vlenb
	li	a4, 409
	mul	a3, a3, a4
	add	a3, sp, a3
	addi	a3, a3, 208
	vs8r.v	v8, (a3)                        # Unknown-size Folded Spill
	vslidedown.vi	v8, v16, 9
	csrr	a3, vlenb
	li	a4, 393
	mul	a3, a3, a4
	add	a3, sp, a3
	addi	a3, a3, 208
	vs8r.v	v8, (a3)                        # Unknown-size Folded Spill
	vslidedown.vi	v8, v16, 8
	csrr	a3, vlenb
	li	a4, 377
	mul	a3, a3, a4
	add	a3, sp, a3
	addi	a3, a3, 208
	vs8r.v	v8, (a3)                        # Unknown-size Folded Spill
	vsetivli	zero, 1, e32, m1, ta, ma
	vslidedown.vi	v8, v16, 7
	csrr	a3, vlenb
	li	a4, 353
	mul	a3, a3, a4
	add	a3, sp, a3
	addi	a3, a3, 208
	vs8r.v	v8, (a3)                        # Unknown-size Folded Spill
	vslidedown.vi	v8, v16, 6
	csrr	a3, vlenb
	li	a4, 337
	mul	a3, a3, a4
	add	a3, sp, a3
	addi	a3, a3, 208
	vs8r.v	v8, (a3)                        # Unknown-size Folded Spill
	vslidedown.vi	v8, v16, 5
	csrr	a3, vlenb
	li	a4, 321
	mul	a3, a3, a4
	add	a3, sp, a3
	addi	a3, a3, 208
	vs8r.v	v8, (a3)                        # Unknown-size Folded Spill
	vslidedown.vi	v8, v16, 4
	csrr	a3, vlenb
	li	a4, 305
	mul	a3, a3, a4
	add	a3, sp, a3
	addi	a3, a3, 208
	vs8r.v	v8, (a3)                        # Unknown-size Folded Spill
	vslidedown.vi	v8, v16, 3
	csrr	a3, vlenb
	li	a4, 297
	mul	a3, a3, a4
	add	a3, sp, a3
	addi	a3, a3, 208
	vs8r.v	v8, (a3)                        # Unknown-size Folded Spill
	vslidedown.vi	v8, v16, 2
	csrr	a3, vlenb
	li	a4, 281
	mul	a3, a3, a4
	add	a3, sp, a3
	addi	a3, a3, 208
	vs8r.v	v8, (a3)                        # Unknown-size Folded Spill
	vmv1r.v	v8, v16
	csrr	a3, vlenb
	li	a4, 105
	mul	a3, a3, a4
	add	a3, sp, a3
	addi	a3, a3, 208
	vs8r.v	v8, (a3)                        # Unknown-size Folded Spill
	vslidedown.vi	v8, v16, 1
	csrr	a3, vlenb
	li	a4, 265
	mul	a3, a3, a4
	add	a3, sp, a3
	addi	a3, a3, 208
	vs8r.v	v8, (a3)                        # Unknown-size Folded Spill
	vsetivli	zero, 2, e32, m8, tu, ma
	csrr	a3, vlenb
	li	a4, 897
	mul	a3, a3, a4
	add	a3, sp, a3
	addi	a3, a3, 208
	vl8r.v	v0, (a3)                        # Unknown-size Folded Reload
	csrr	a3, vlenb
	li	a4, 1289
	mul	a3, a3, a4
	add	a3, sp, a3
	addi	a3, a3, 208
	vl8r.v	v8, (a3)                        # Unknown-size Folded Reload
	vslideup.vi	v8, v0, 1
	vsetivli	zero, 3, e32, m8, tu, ma
	csrr	a3, vlenb
	li	a4, 913
	mul	a3, a3, a4
	add	a3, sp, a3
	addi	a3, a3, 208
	vl8r.v	v0, (a3)                        # Unknown-size Folded Reload
	vslideup.vi	v8, v0, 2
	vsetivli	zero, 4, e32, m8, tu, ma
	csrr	a3, vlenb
	li	a4, 929
	mul	a3, a3, a4
	add	a3, sp, a3
	addi	a3, a3, 208
	vl8r.v	v0, (a3)                        # Unknown-size Folded Reload
	vslideup.vi	v8, v0, 3
	vsetivli	zero, 5, e32, m8, tu, ma
	csrr	a3, vlenb
	li	a4, 945
	mul	a3, a3, a4
	add	a3, sp, a3
	addi	a3, a3, 208
	vl8r.v	v0, (a3)                        # Unknown-size Folded Reload
	vslideup.vi	v8, v0, 4
	vsetivli	zero, 6, e32, m8, tu, ma
	csrr	a3, vlenb
	li	a4, 961
	mul	a3, a3, a4
	add	a3, sp, a3
	addi	a3, a3, 208
	vl8r.v	v0, (a3)                        # Unknown-size Folded Reload
	vslideup.vi	v8, v0, 5
	vsetivli	zero, 7, e32, m8, tu, ma
	csrr	a3, vlenb
	li	a4, 977
	mul	a3, a3, a4
	add	a3, sp, a3
	addi	a3, a3, 208
	vl8r.v	v0, (a3)                        # Unknown-size Folded Reload
	vslideup.vi	v8, v0, 6
	vsetivli	zero, 8, e32, m8, tu, ma
	csrr	a3, vlenb
	li	a4, 993
	mul	a3, a3, a4
	add	a3, sp, a3
	addi	a3, a3, 208
	vl8r.v	v0, (a3)                        # Unknown-size Folded Reload
	vslideup.vi	v8, v0, 7
	vsetivli	zero, 9, e32, m8, tu, ma
	csrr	a3, vlenb
	li	a4, 1017
	mul	a3, a3, a4
	add	a3, sp, a3
	addi	a3, a3, 208
	vl8r.v	v0, (a3)                        # Unknown-size Folded Reload
	vslideup.vi	v8, v0, 8
	vsetivli	zero, 10, e32, m8, tu, ma
	csrr	a3, vlenb
	li	a4, 1033
	mul	a3, a3, a4
	add	a3, sp, a3
	addi	a3, a3, 208
	vl8r.v	v0, (a3)                        # Unknown-size Folded Reload
	vslideup.vi	v8, v0, 9
	vsetivli	zero, 11, e32, m8, tu, ma
	csrr	a3, vlenb
	li	a4, 1049
	mul	a3, a3, a4
	add	a3, sp, a3
	addi	a3, a3, 208
	vl8r.v	v0, (a3)                        # Unknown-size Folded Reload
	vslideup.vi	v8, v0, 10
	vsetivli	zero, 12, e32, m8, tu, ma
	csrr	a3, vlenb
	li	a4, 1065
	mul	a3, a3, a4
	add	a3, sp, a3
	addi	a3, a3, 208
	vl8r.v	v0, (a3)                        # Unknown-size Folded Reload
	vslideup.vi	v8, v0, 11
	vsetivli	zero, 13, e32, m8, tu, ma
	csrr	a3, vlenb
	li	a4, 1081
	mul	a3, a3, a4
	add	a3, sp, a3
	addi	a3, a3, 208
	vl8r.v	v0, (a3)                        # Unknown-size Folded Reload
	vslideup.vi	v8, v0, 12
	vsetivli	zero, 14, e32, m8, tu, ma
	csrr	a3, vlenb
	li	a4, 1097
	mul	a3, a3, a4
	add	a3, sp, a3
	addi	a3, a3, 208
	vl8r.v	v0, (a3)                        # Unknown-size Folded Reload
	vslideup.vi	v8, v0, 13
	vsetivli	zero, 15, e32, m8, tu, ma
	csrr	a3, vlenb
	li	a4, 1113
	mul	a3, a3, a4
	add	a3, sp, a3
	addi	a3, a3, 208
	vl8r.v	v0, (a3)                        # Unknown-size Folded Reload
	vslideup.vi	v8, v0, 14
	vsetivli	zero, 16, e32, m8, tu, ma
	csrr	a3, vlenb
	li	a4, 1129
	mul	a3, a3, a4
	add	a3, sp, a3
	addi	a3, a3, 208
	vl8r.v	v0, (a3)                        # Unknown-size Folded Reload
	vslideup.vi	v8, v0, 15
	vsetivli	zero, 17, e32, m8, tu, ma
	csrr	a3, vlenb
	li	a4, 1145
	mul	a3, a3, a4
	add	a3, sp, a3
	addi	a3, a3, 208
	vl8r.v	v0, (a3)                        # Unknown-size Folded Reload
	vslideup.vi	v8, v0, 16
	vsetivli	zero, 18, e32, m8, tu, ma
	csrr	a3, vlenb
	li	a4, 1161
	mul	a3, a3, a4
	add	a3, sp, a3
	addi	a3, a3, 208
	vl8r.v	v0, (a3)                        # Unknown-size Folded Reload
	vslideup.vi	v8, v0, 17
	vsetivli	zero, 19, e32, m8, tu, ma
	csrr	a3, vlenb
	li	a4, 1177
	mul	a3, a3, a4
	add	a3, sp, a3
	addi	a3, a3, 208
	vl8r.v	v0, (a3)                        # Unknown-size Folded Reload
	vslideup.vi	v8, v0, 18
	vsetivli	zero, 20, e32, m8, tu, ma
	csrr	a3, vlenb
	li	a4, 1185
	mul	a3, a3, a4
	add	a3, sp, a3
	addi	a3, a3, 208
	vl8r.v	v0, (a3)                        # Unknown-size Folded Reload
	vslideup.vi	v8, v0, 19
	vsetivli	zero, 21, e32, m8, tu, ma
	csrr	a3, vlenb
	li	a4, 1193
	mul	a3, a3, a4
	add	a3, sp, a3
	addi	a3, a3, 208
	vl8r.v	v0, (a3)                        # Unknown-size Folded Reload
	vslideup.vi	v8, v0, 20
	vsetivli	zero, 22, e32, m8, tu, ma
	csrr	a3, vlenb
	li	a4, 1201
	mul	a3, a3, a4
	add	a3, sp, a3
	addi	a3, a3, 208
	vl8r.v	v0, (a3)                        # Unknown-size Folded Reload
	vslideup.vi	v8, v0, 21
	vsetivli	zero, 23, e32, m8, tu, ma
	csrr	a3, vlenb
	li	a4, 1209
	mul	a3, a3, a4
	add	a3, sp, a3
	addi	a3, a3, 208
	vl8r.v	v0, (a3)                        # Unknown-size Folded Reload
	vslideup.vi	v8, v0, 22
	vsetivli	zero, 24, e32, m8, tu, ma
	csrr	a3, vlenb
	li	a4, 1217
	mul	a3, a3, a4
	add	a3, sp, a3
	addi	a3, a3, 208
	vl8r.v	v0, (a3)                        # Unknown-size Folded Reload
	vslideup.vi	v8, v0, 23
	vsetivli	zero, 25, e32, m8, tu, ma
	csrr	a3, vlenb
	li	a4, 1225
	mul	a3, a3, a4
	add	a3, sp, a3
	addi	a3, a3, 208
	vl8r.v	v0, (a3)                        # Unknown-size Folded Reload
	vslideup.vi	v8, v0, 24
	vsetivli	zero, 26, e32, m8, tu, ma
	csrr	a3, vlenb
	li	a4, 1233
	mul	a3, a3, a4
	add	a3, sp, a3
	addi	a3, a3, 208
	vl8r.v	v0, (a3)                        # Unknown-size Folded Reload
	vslideup.vi	v8, v0, 25
	vsetivli	zero, 27, e32, m8, tu, ma
	csrr	a3, vlenb
	li	a4, 1241
	mul	a3, a3, a4
	add	a3, sp, a3
	addi	a3, a3, 208
	vl8r.v	v0, (a3)                        # Unknown-size Folded Reload
	vslideup.vi	v8, v0, 26
	vsetivli	zero, 28, e32, m8, tu, ma
	csrr	a3, vlenb
	li	a4, 1249
	mul	a3, a3, a4
	add	a3, sp, a3
	addi	a3, a3, 208
	vl8r.v	v0, (a3)                        # Unknown-size Folded Reload
	vslideup.vi	v8, v0, 27
	vsetivli	zero, 29, e32, m8, tu, ma
	csrr	a3, vlenb
	li	a4, 1257
	mul	a3, a3, a4
	add	a3, sp, a3
	addi	a3, a3, 208
	vl8r.v	v0, (a3)                        # Unknown-size Folded Reload
	vslideup.vi	v8, v0, 28
	vsetivli	zero, 30, e32, m8, tu, ma
	csrr	a3, vlenb
	li	a4, 1265
	mul	a3, a3, a4
	add	a3, sp, a3
	addi	a3, a3, 208
	vl8r.v	v0, (a3)                        # Unknown-size Folded Reload
	vslideup.vi	v8, v0, 29
	vsetivli	zero, 31, e32, m8, tu, ma
	csrr	a3, vlenb
	li	a4, 1273
	mul	a3, a3, a4
	add	a3, sp, a3
	addi	a3, a3, 208
	vl8r.v	v0, (a3)                        # Unknown-size Folded Reload
	vslideup.vi	v8, v0, 30
	vsetvli	zero, a1, e32, m8, tu, ma
	csrr	a1, vlenb
	li	a3, 1281
	mul	a1, a1, a3
	add	a1, sp, a1
	addi	a1, a1, 208
	vl8r.v	v0, (a1)                        # Unknown-size Folded Reload
	vslideup.vi	v8, v0, 31
	vsetvli	zero, a0, e32, m8, ta, ma
	csrr	a1, vlenb
	slli	a3, a1, 3
	add	a1, a3, a1
	add	a1, sp, a1
	addi	a1, a1, 208
	vl8r.v	v16, (a1)                       # Unknown-size Folded Reload
	vfmacc.vf	v8, fa5, v16
	vsetivli	zero, 1, e32, m4, ta, ma
	vslidedown.vi	v0, v8, 31
	csrr	a1, vlenb
	li	a3, 1281
	mul	a1, a1, a3
	add	a1, sp, a1
	addi	a1, a1, 208
	vs8r.v	v0, (a1)                        # Unknown-size Folded Spill
	vslidedown.vi	v0, v8, 30
	csrr	a1, vlenb
	li	a3, 1273
	mul	a1, a1, a3
	add	a1, sp, a1
	addi	a1, a1, 208
	vs8r.v	v0, (a1)                        # Unknown-size Folded Spill
	vslidedown.vi	v0, v8, 29
	csrr	a1, vlenb
	li	a3, 1265
	mul	a1, a1, a3
	add	a1, sp, a1
	addi	a1, a1, 208
	vs8r.v	v0, (a1)                        # Unknown-size Folded Spill
	vslidedown.vi	v0, v8, 28
	csrr	a1, vlenb
	li	a3, 1257
	mul	a1, a1, a3
	add	a1, sp, a1
	addi	a1, a1, 208
	vs8r.v	v0, (a1)                        # Unknown-size Folded Spill
	vslidedown.vi	v0, v8, 27
	csrr	a1, vlenb
	li	a3, 1249
	mul	a1, a1, a3
	add	a1, sp, a1
	addi	a1, a1, 208
	vs8r.v	v0, (a1)                        # Unknown-size Folded Spill
	vslidedown.vi	v0, v8, 26
	csrr	a1, vlenb
	li	a3, 1241
	mul	a1, a1, a3
	add	a1, sp, a1
	addi	a1, a1, 208
	vs8r.v	v0, (a1)                        # Unknown-size Folded Spill
	vslidedown.vi	v0, v8, 25
	csrr	a1, vlenb
	li	a3, 1233
	mul	a1, a1, a3
	add	a1, sp, a1
	addi	a1, a1, 208
	vs8r.v	v0, (a1)                        # Unknown-size Folded Spill
	vslidedown.vi	v0, v8, 24
	csrr	a1, vlenb
	li	a3, 1225
	mul	a1, a1, a3
	add	a1, sp, a1
	addi	a1, a1, 208
	vs8r.v	v0, (a1)                        # Unknown-size Folded Spill
	vslidedown.vi	v0, v8, 23
	csrr	a1, vlenb
	li	a3, 1217
	mul	a1, a1, a3
	add	a1, sp, a1
	addi	a1, a1, 208
	vs8r.v	v0, (a1)                        # Unknown-size Folded Spill
	vslidedown.vi	v0, v8, 22
	csrr	a1, vlenb
	li	a3, 1209
	mul	a1, a1, a3
	add	a1, sp, a1
	addi	a1, a1, 208
	vs8r.v	v0, (a1)                        # Unknown-size Folded Spill
	vslidedown.vi	v0, v8, 21
	csrr	a1, vlenb
	li	a3, 1201
	mul	a1, a1, a3
	add	a1, sp, a1
	addi	a1, a1, 208
	vs8r.v	v0, (a1)                        # Unknown-size Folded Spill
	vslidedown.vi	v0, v8, 20
	csrr	a1, vlenb
	li	a3, 1193
	mul	a1, a1, a3
	add	a1, sp, a1
	addi	a1, a1, 208
	vs8r.v	v0, (a1)                        # Unknown-size Folded Spill
	vslidedown.vi	v0, v8, 19
	csrr	a1, vlenb
	li	a3, 1185
	mul	a1, a1, a3
	add	a1, sp, a1
	addi	a1, a1, 208
	vs8r.v	v0, (a1)                        # Unknown-size Folded Spill
	vslidedown.vi	v0, v8, 18
	csrr	a1, vlenb
	li	a3, 1177
	mul	a1, a1, a3
	add	a1, sp, a1
	addi	a1, a1, 208
	vs8r.v	v0, (a1)                        # Unknown-size Folded Spill
	vslidedown.vi	v0, v8, 17
	csrr	a1, vlenb
	li	a3, 1161
	mul	a1, a1, a3
	add	a1, sp, a1
	addi	a1, a1, 208
	vs8r.v	v0, (a1)                        # Unknown-size Folded Spill
	vslidedown.vi	v0, v8, 16
	csrr	a1, vlenb
	li	a3, 1145
	mul	a1, a1, a3
	add	a1, sp, a1
	addi	a1, a1, 208
	vs8r.v	v0, (a1)                        # Unknown-size Folded Spill
	vsetivli	zero, 1, e32, m2, ta, ma
	vslidedown.vi	v0, v8, 15
	csrr	a1, vlenb
	li	a3, 1129
	mul	a1, a1, a3
	add	a1, sp, a1
	addi	a1, a1, 208
	vs8r.v	v0, (a1)                        # Unknown-size Folded Spill
	vslidedown.vi	v0, v8, 14
	csrr	a1, vlenb
	li	a3, 1113
	mul	a1, a1, a3
	add	a1, sp, a1
	addi	a1, a1, 208
	vs8r.v	v0, (a1)                        # Unknown-size Folded Spill
	vslidedown.vi	v0, v8, 13
	csrr	a1, vlenb
	li	a3, 1097
	mul	a1, a1, a3
	add	a1, sp, a1
	addi	a1, a1, 208
	vs8r.v	v0, (a1)                        # Unknown-size Folded Spill
	vslidedown.vi	v0, v8, 12
	csrr	a1, vlenb
	li	a3, 1081
	mul	a1, a1, a3
	add	a1, sp, a1
	addi	a1, a1, 208
	vs8r.v	v0, (a1)                        # Unknown-size Folded Spill
	vslidedown.vi	v0, v8, 11
	csrr	a1, vlenb
	li	a3, 1065
	mul	a1, a1, a3
	add	a1, sp, a1
	addi	a1, a1, 208
	vs8r.v	v0, (a1)                        # Unknown-size Folded Spill
	vslidedown.vi	v0, v8, 10
	csrr	a1, vlenb
	li	a3, 1049
	mul	a1, a1, a3
	add	a1, sp, a1
	addi	a1, a1, 208
	vs8r.v	v0, (a1)                        # Unknown-size Folded Spill
	vslidedown.vi	v0, v8, 9
	csrr	a1, vlenb
	li	a3, 1033
	mul	a1, a1, a3
	add	a1, sp, a1
	addi	a1, a1, 208
	vs8r.v	v0, (a1)                        # Unknown-size Folded Spill
	vslidedown.vi	v0, v8, 8
	csrr	a1, vlenb
	li	a3, 1017
	mul	a1, a1, a3
	add	a1, sp, a1
	addi	a1, a1, 208
	vs8r.v	v0, (a1)                        # Unknown-size Folded Spill
	vsetivli	zero, 1, e32, m1, ta, ma
	addi	a2, a2, 1
	vslidedown.vi	v0, v8, 7
	csrr	a1, vlenb
	li	a3, 993
	mul	a1, a1, a3
	add	a1, sp, a1
	addi	a1, a1, 208
	vs8r.v	v0, (a1)                        # Unknown-size Folded Spill
	vslidedown.vi	v0, v8, 6
	csrr	a1, vlenb
	li	a3, 977
	mul	a1, a1, a3
	add	a1, sp, a1
	addi	a1, a1, 208
	vs8r.v	v0, (a1)                        # Unknown-size Folded Spill
	vslidedown.vi	v0, v8, 5
	csrr	a1, vlenb
	li	a3, 961
	mul	a1, a1, a3
	add	a1, sp, a1
	addi	a1, a1, 208
	vs8r.v	v0, (a1)                        # Unknown-size Folded Spill
	vslidedown.vi	v0, v8, 4
	csrr	a1, vlenb
	li	a3, 945
	mul	a1, a1, a3
	add	a1, sp, a1
	addi	a1, a1, 208
	vs8r.v	v0, (a1)                        # Unknown-size Folded Spill
	vslidedown.vi	v0, v8, 3
	csrr	a1, vlenb
	li	a3, 929
	mul	a1, a1, a3
	add	a1, sp, a1
	addi	a1, a1, 208
	vs8r.v	v0, (a1)                        # Unknown-size Folded Spill
	vslidedown.vi	v0, v8, 2
	csrr	a1, vlenb
	li	a3, 913
	mul	a1, a1, a3
	add	a1, sp, a1
	addi	a1, a1, 208
	vs8r.v	v0, (a1)                        # Unknown-size Folded Spill
	vmv1r.v	v0, v8
	csrr	a1, vlenb
	li	a3, 1289
	mul	a1, a1, a3
	add	a1, sp, a1
	addi	a1, a1, 208
	vs8r.v	v0, (a1)                        # Unknown-size Folded Spill
	vslidedown.vi	v8, v8, 1
	csrr	a1, vlenb
	li	a3, 897
	mul	a1, a1, a3
	add	a1, sp, a1
	addi	a1, a1, 208
	vs8r.v	v8, (a1)                        # Unknown-size Folded Spill
	j	.LBB0_18
.LBB0_20:                               #   in Loop: Header=BB0_12 Depth=2
	ld	a3, 128(sp)                     # 8-byte Folded Reload
	vle8.v	v18, (a3)
	ld	a1, 136(sp)                     # 8-byte Folded Reload
	vmslt.vx	v17, v8, a1
	vsext.vf4	v8, v18
	vmslt.vx	v18, v8, a1
	vsetivli	zero, 16, e8, m1, tu, ma
	vslideup.vi	v17, v18, 8
	vsetvli	zero, a0, e32, m8, ta, ma
	ld	a3, 120(sp)                     # 8-byte Folded Reload
	vle32.v	v8, (a3)
	vmslt.vx	v18, v8, a1
	vsetivli	zero, 24, e8, m1, tu, ma
	vslideup.vi	v17, v18, 16
	vsetivli	zero, 4, e64, m1, ta, ma
	ld	a3, 112(sp)                     # 8-byte Folded Reload
	vle64.v	v8, (a3)
	li	s4, 64
	li	a0, 256
	vsetvli	zero, a0, e8, m8, ta, ma
	vmand.mm	v8, v17, v8
	vsetivli	zero, 2, e32, m8, tu, ma
	sd	s4, 8(sp)
	csrr	a0, vlenb
	li	a1, 25
	mul	a0, a0, a1
	add	a0, sp, a0
	addi	a0, a0, 208
	vl8r.v	v16, (a0)                       # Unknown-size Folded Reload
	csrr	a0, vlenb
	slli	a1, a0, 4
	add	a0, a1, a0
	add	a0, sp, a0
	addi	a0, a0, 208
	vl8r.v	v24, (a0)                       # Unknown-size Folded Reload
	vslideup.vi	v24, v16, 1
	vsetivli	zero, 3, e32, m8, tu, ma
	csrr	a0, vlenb
	slli	a1, a0, 5
	add	a0, a1, a0
	add	a0, sp, a0
	addi	a0, a0, 208
	vl8r.v	v16, (a0)                       # Unknown-size Folded Reload
	vslideup.vi	v24, v16, 2
	vsetivli	zero, 4, e32, m8, tu, ma
	csrr	a0, vlenb
	li	a1, 41
	mul	a0, a0, a1
	add	a0, sp, a0
	addi	a0, a0, 208
	vl8r.v	v16, (a0)                       # Unknown-size Folded Reload
	vslideup.vi	v24, v16, 3
	vsetivli	zero, 5, e32, m8, tu, ma
	csrr	a0, vlenb
	li	a1, 49
	mul	a0, a0, a1
	add	a0, sp, a0
	addi	a0, a0, 208
	vl8r.v	v16, (a0)                       # Unknown-size Folded Reload
	vslideup.vi	v24, v16, 4
	vsetivli	zero, 6, e32, m8, tu, ma
	csrr	a0, vlenb
	li	a1, 57
	mul	a0, a0, a1
	add	a0, sp, a0
	addi	a0, a0, 208
	vl8r.v	v16, (a0)                       # Unknown-size Folded Reload
	vslideup.vi	v24, v16, 5
	vsetivli	zero, 7, e32, m8, tu, ma
	csrr	a0, vlenb
	slli	a1, a0, 6
	add	a0, a1, a0
	add	a0, sp, a0
	addi	a0, a0, 208
	vl8r.v	v16, (a0)                       # Unknown-size Folded Reload
	vslideup.vi	v24, v16, 6
	vsetivli	zero, 8, e32, m8, tu, ma
	csrr	a0, vlenb
	li	a1, 73
	mul	a0, a0, a1
	add	a0, sp, a0
	addi	a0, a0, 208
	vl8r.v	v16, (a0)                       # Unknown-size Folded Reload
	vslideup.vi	v24, v16, 7
	vsetivli	zero, 9, e32, m8, tu, ma
	csrr	a0, vlenb
	li	a1, 81
	mul	a0, a0, a1
	add	a0, sp, a0
	addi	a0, a0, 208
	vl8r.v	v16, (a0)                       # Unknown-size Folded Reload
	vslideup.vi	v24, v16, 8
	vsetivli	zero, 10, e32, m8, tu, ma
	csrr	a0, vlenb
	li	a1, 89
	mul	a0, a0, a1
	add	a0, sp, a0
	addi	a0, a0, 208
	vl8r.v	v16, (a0)                       # Unknown-size Folded Reload
	vslideup.vi	v24, v16, 9
	vsetivli	zero, 11, e32, m8, tu, ma
	csrr	a0, vlenb
	li	a1, 97
	mul	a0, a0, a1
	add	a0, sp, a0
	addi	a0, a0, 208
	vl8r.v	v16, (a0)                       # Unknown-size Folded Reload
	vslideup.vi	v24, v16, 10
	vsetivli	zero, 12, e32, m8, tu, ma
	csrr	a0, vlenb
	li	a1, 113
	mul	a0, a0, a1
	add	a0, sp, a0
	addi	a0, a0, 208
	vl8r.v	v0, (a0)                        # Unknown-size Folded Reload
	vslideup.vi	v24, v0, 11
	vsetivli	zero, 13, e32, m8, tu, ma
	csrr	a0, vlenb
	li	a1, 121
	mul	a0, a0, a1
	add	a0, sp, a0
	addi	a0, a0, 208
	vl8r.v	v0, (a0)                        # Unknown-size Folded Reload
	vslideup.vi	v24, v0, 12
	vsetivli	zero, 14, e32, m8, tu, ma
	csrr	a0, vlenb
	slli	a1, a0, 7
	add	a0, a1, a0
	add	a0, sp, a0
	addi	a0, a0, 208
	vl8r.v	v0, (a0)                        # Unknown-size Folded Reload
	vslideup.vi	v24, v0, 13
	vsetivli	zero, 15, e32, m8, tu, ma
	csrr	a0, vlenb
	li	a1, 137
	mul	a0, a0, a1
	add	a0, sp, a0
	addi	a0, a0, 208
	vl8r.v	v0, (a0)                        # Unknown-size Folded Reload
	vslideup.vi	v24, v0, 14
	vsetivli	zero, 16, e32, m8, tu, ma
	csrr	a0, vlenb
	li	a1, 145
	mul	a0, a0, a1
	add	a0, sp, a0
	addi	a0, a0, 208
	vl8r.v	v0, (a0)                        # Unknown-size Folded Reload
	vslideup.vi	v24, v0, 15
	vsetivli	zero, 17, e32, m8, tu, ma
	csrr	a0, vlenb
	li	a1, 153
	mul	a0, a0, a1
	add	a0, sp, a0
	addi	a0, a0, 208
	vl8r.v	v0, (a0)                        # Unknown-size Folded Reload
	vslideup.vi	v24, v0, 16
	vsetivli	zero, 18, e32, m8, tu, ma
	csrr	a0, vlenb
	li	a1, 161
	mul	a0, a0, a1
	add	a0, sp, a0
	addi	a0, a0, 208
	vl8r.v	v0, (a0)                        # Unknown-size Folded Reload
	vslideup.vi	v24, v0, 17
	vsetivli	zero, 19, e32, m8, tu, ma
	csrr	a0, vlenb
	li	a1, 169
	mul	a0, a0, a1
	add	a0, sp, a0
	addi	a0, a0, 208
	vl8r.v	v0, (a0)                        # Unknown-size Folded Reload
	vslideup.vi	v24, v0, 18
	vsetivli	zero, 20, e32, m8, tu, ma
	csrr	a0, vlenb
	li	a1, 177
	mul	a0, a0, a1
	add	a0, sp, a0
	addi	a0, a0, 208
	vl8r.v	v0, (a0)                        # Unknown-size Folded Reload
	vslideup.vi	v24, v0, 19
	vsetivli	zero, 21, e32, m8, tu, ma
	csrr	a0, vlenb
	li	a1, 185
	mul	a0, a0, a1
	add	a0, sp, a0
	addi	a0, a0, 208
	vl8r.v	v0, (a0)                        # Unknown-size Folded Reload
	vslideup.vi	v24, v0, 20
	vsetivli	zero, 22, e32, m8, tu, ma
	csrr	a0, vlenb
	li	a1, 193
	mul	a0, a0, a1
	add	a0, sp, a0
	addi	a0, a0, 208
	vl8r.v	v0, (a0)                        # Unknown-size Folded Reload
	vslideup.vi	v24, v0, 21
	vsetivli	zero, 23, e32, m8, tu, ma
	csrr	a0, vlenb
	li	a1, 201
	mul	a0, a0, a1
	add	a0, sp, a0
	addi	a0, a0, 208
	vl8r.v	v0, (a0)                        # Unknown-size Folded Reload
	vslideup.vi	v24, v0, 22
	vsetivli	zero, 24, e32, m8, tu, ma
	csrr	a0, vlenb
	li	a1, 209
	mul	a0, a0, a1
	add	a0, sp, a0
	addi	a0, a0, 208
	vl8r.v	v0, (a0)                        # Unknown-size Folded Reload
	vslideup.vi	v24, v0, 23
	vsetivli	zero, 25, e32, m8, tu, ma
	csrr	a0, vlenb
	li	a1, 217
	mul	a0, a0, a1
	add	a0, sp, a0
	addi	a0, a0, 208
	vl8r.v	v0, (a0)                        # Unknown-size Folded Reload
	vslideup.vi	v24, v0, 24
	vsetivli	zero, 26, e32, m8, tu, ma
	csrr	a0, vlenb
	li	a1, 225
	mul	a0, a0, a1
	add	a0, sp, a0
	addi	a0, a0, 208
	vl8r.v	v0, (a0)                        # Unknown-size Folded Reload
	vslideup.vi	v24, v0, 25
	vsetivli	zero, 27, e32, m8, tu, ma
	csrr	a0, vlenb
	li	a1, 233
	mul	a0, a0, a1
	add	a0, sp, a0
	addi	a0, a0, 208
	vl8r.v	v0, (a0)                        # Unknown-size Folded Reload
	vslideup.vi	v24, v0, 26
	vsetivli	zero, 28, e32, m8, tu, ma
	csrr	a0, vlenb
	li	a1, 241
	mul	a0, a0, a1
	add	a0, sp, a0
	addi	a0, a0, 208
	vl8r.v	v0, (a0)                        # Unknown-size Folded Reload
	vslideup.vi	v24, v0, 27
	vsetivli	zero, 29, e32, m8, tu, ma
	csrr	a0, vlenb
	li	a1, 249
	mul	a0, a0, a1
	add	a0, sp, a0
	addi	a0, a0, 208
	vl8r.v	v0, (a0)                        # Unknown-size Folded Reload
	vslideup.vi	v24, v0, 28
	vsetivli	zero, 30, e32, m8, tu, ma
	csrr	a0, vlenb
	slli	a1, a0, 8
	add	a0, a1, a0
	add	a0, sp, a0
	addi	a0, a0, 208
	vl8r.v	v0, (a0)                        # Unknown-size Folded Reload
	vslideup.vi	v24, v0, 29
	vsetivli	zero, 31, e32, m8, tu, ma
	csrr	a0, vlenb
	li	a1, 273
	mul	a0, a0, a1
	add	a0, sp, a0
	addi	a0, a0, 208
	vl8r.v	v0, (a0)                        # Unknown-size Folded Reload
	vslideup.vi	v24, v0, 30
	li	a0, 32
	vsetvli	zero, a0, e32, m8, tu, ma
	li	a0, 32
	csrr	a1, vlenb
	li	a2, 289
	mul	a1, a1, a2
	add	a1, sp, a1
	addi	a1, a1, 208
	vl8r.v	v0, (a1)                        # Unknown-size Folded Reload
	vslideup.vi	v24, v0, 31
	li	s6, 33
	vsetvli	zero, s6, e32, m8, tu, ma
	csrr	a1, vlenb
	li	a2, 313
	mul	a1, a1, a2
	add	a1, sp, a1
	addi	a1, a1, 208
	vl8r.v	v0, (a1)                        # Unknown-size Folded Reload
	vslideup.vx	v24, v0, a0
	li	s7, 34
	vsetvli	zero, s7, e32, m8, tu, ma
	csrr	a0, vlenb
	li	a1, 329
	mul	a0, a0, a1
	add	a0, sp, a0
	addi	a0, a0, 208
	vl8r.v	v0, (a0)                        # Unknown-size Folded Reload
	vslideup.vx	v24, v0, s6
	li	s9, 35
	vsetvli	zero, s9, e32, m8, tu, ma
	csrr	a0, vlenb
	li	a1, 345
	mul	a0, a0, a1
	add	a0, sp, a0
	addi	a0, a0, 208
	vl8r.v	v0, (a0)                        # Unknown-size Folded Reload
	vslideup.vx	v24, v0, s7
	li	t2, 36
	vsetvli	zero, t2, e32, m8, tu, ma
	csrr	a0, vlenb
	li	a1, 361
	mul	a0, a0, a1
	add	a0, sp, a0
	addi	a0, a0, 208
	vl8r.v	v0, (a0)                        # Unknown-size Folded Reload
	vslideup.vx	v24, v0, s9
	li	t3, 37
	vsetvli	zero, t3, e32, m8, tu, ma
	csrr	a0, vlenb
	li	a1, 369
	mul	a0, a0, a1
	add	a0, sp, a0
	addi	a0, a0, 208
	vl8r.v	v0, (a0)                        # Unknown-size Folded Reload
	vslideup.vx	v24, v0, t2
	li	t4, 38
	vsetvli	zero, t4, e32, m8, tu, ma
	csrr	a0, vlenb
	li	a1, 385
	mul	a0, a0, a1
	add	a0, sp, a0
	addi	a0, a0, 208
	vl8r.v	v0, (a0)                        # Unknown-size Folded Reload
	vslideup.vx	v24, v0, t3
	li	a5, 39
	vsetvli	zero, a5, e32, m8, tu, ma
	csrr	a0, vlenb
	li	a1, 401
	mul	a0, a0, a1
	add	a0, sp, a0
	addi	a0, a0, 208
	vl8r.v	v0, (a0)                        # Unknown-size Folded Reload
	vslideup.vx	v24, v0, t4
	li	a3, 40
	vsetvli	zero, a3, e32, m8, tu, ma
	csrr	a0, vlenb
	li	a1, 417
	mul	a0, a0, a1
	add	a0, sp, a0
	addi	a0, a0, 208
	vl8r.v	v0, (a0)                        # Unknown-size Folded Reload
	vslideup.vx	v24, v0, a5
	li	t0, 41
	vsetvli	zero, t0, e32, m8, tu, ma
	csrr	a0, vlenb
	li	a1, 433
	mul	a0, a0, a1
	add	a0, sp, a0
	addi	a0, a0, 208
	vl8r.v	v0, (a0)                        # Unknown-size Folded Reload
	vslideup.vx	v24, v0, a3
	li	t1, 42
	vsetvli	zero, t1, e32, m8, tu, ma
	csrr	a0, vlenb
	li	a1, 449
	mul	a0, a0, a1
	add	a0, sp, a0
	addi	a0, a0, 208
	vl8r.v	v0, (a0)                        # Unknown-size Folded Reload
	vslideup.vx	v24, v0, t0
	li	a4, 43
	vsetvli	zero, a4, e32, m8, tu, ma
	csrr	a0, vlenb
	li	a1, 465
	mul	a0, a0, a1
	add	a0, sp, a0
	addi	a0, a0, 208
	vl8r.v	v0, (a0)                        # Unknown-size Folded Reload
	vslideup.vx	v24, v0, t1
	li	a0, 44
	vsetvli	zero, a0, e32, m8, tu, ma
	li	a0, 44
	csrr	a1, vlenb
	li	a2, 481
	mul	a1, a1, a2
	add	a1, sp, a1
	addi	a1, a1, 208
	vl8r.v	v0, (a1)                        # Unknown-size Folded Reload
	vslideup.vx	v24, v0, a4
	li	s10, 45
	vsetvli	zero, s10, e32, m8, tu, ma
	csrr	a1, vlenb
	li	a2, 497
	mul	a1, a1, a2
	add	a1, sp, a1
	addi	a1, a1, 208
	vl8r.v	v0, (a1)                        # Unknown-size Folded Reload
	vslideup.vx	v24, v0, a0
	li	s11, 46
	vsetvli	zero, s11, e32, m8, tu, ma
	csrr	a0, vlenb
	slli	a1, a0, 9
	add	a0, a1, a0
	add	a0, sp, a0
	addi	a0, a0, 208
	vl8r.v	v0, (a0)                        # Unknown-size Folded Reload
	vslideup.vx	v24, v0, s10
	li	ra, 47
	vsetvli	zero, ra, e32, m8, tu, ma
	csrr	a0, vlenb
	li	a1, 529
	mul	a0, a0, a1
	add	a0, sp, a0
	addi	a0, a0, 208
	vl8r.v	v0, (a0)                        # Unknown-size Folded Reload
	vslideup.vx	v24, v0, s11
	li	a2, 48
	vsetvli	zero, a2, e32, m8, tu, ma
	csrr	a0, vlenb
	li	a1, 545
	mul	a0, a0, a1
	add	a0, sp, a0
	addi	a0, a0, 208
	vl8r.v	v0, (a0)                        # Unknown-size Folded Reload
	vslideup.vx	v24, v0, ra
	li	a7, 49
	vsetvli	zero, a7, e32, m8, tu, ma
	csrr	a0, vlenb
	li	a1, 561
	mul	a0, a0, a1
	add	a0, sp, a0
	addi	a0, a0, 208
	vl8r.v	v0, (a0)                        # Unknown-size Folded Reload
	vslideup.vx	v24, v0, a2
	li	a6, 50
	vsetvli	zero, a6, e32, m8, tu, ma
	csrr	a0, vlenb
	li	a1, 577
	mul	a0, a0, a1
	add	a0, sp, a0
	addi	a0, a0, 208
	vl8r.v	v0, (a0)                        # Unknown-size Folded Reload
	vslideup.vx	v24, v0, a7
	li	a0, 51
	vsetvli	zero, a0, e32, m8, tu, ma
	li	a0, 51
	csrr	a1, vlenb
	li	t5, 593
	mul	a1, a1, t5
	add	a1, sp, a1
	addi	a1, a1, 208
	vl8r.v	v0, (a1)                        # Unknown-size Folded Reload
	vslideup.vx	v24, v0, a6
	li	t6, 52
	vsetvli	zero, t6, e32, m8, tu, ma
	csrr	a1, vlenb
	li	t5, 609
	mul	a1, a1, t5
	add	a1, sp, a1
	addi	a1, a1, 208
	vl8r.v	v0, (a1)                        # Unknown-size Folded Reload
	vslideup.vx	v24, v0, a0
	li	s0, 53
	vsetvli	zero, s0, e32, m8, tu, ma
	csrr	a0, vlenb
	li	a1, 625
	mul	a0, a0, a1
	add	a0, sp, a0
	addi	a0, a0, 208
	vl8r.v	v0, (a0)                        # Unknown-size Folded Reload
	vslideup.vx	v24, v0, t6
	li	s1, 54
	vsetvli	zero, s1, e32, m8, tu, ma
	csrr	a0, vlenb
	li	a1, 641
	mul	a0, a0, a1
	add	a0, sp, a0
	addi	a0, a0, 208
	vl8r.v	v0, (a0)                        # Unknown-size Folded Reload
	vslideup.vx	v24, v0, s0
	li	s2, 55
	vsetvli	zero, s2, e32, m8, tu, ma
	csrr	a0, vlenb
	li	a1, 657
	mul	a0, a0, a1
	add	a0, sp, a0
	addi	a0, a0, 208
	vl8r.v	v0, (a0)                        # Unknown-size Folded Reload
	vslideup.vx	v24, v0, s1
	li	s3, 56
	vsetvli	zero, s3, e32, m8, tu, ma
	csrr	a0, vlenb
	li	a1, 673
	mul	a0, a0, a1
	add	a0, sp, a0
	addi	a0, a0, 208
	vl8r.v	v0, (a0)                        # Unknown-size Folded Reload
	vslideup.vx	v24, v0, s2
	li	s8, 57
	vsetvli	zero, s8, e32, m8, tu, ma
	csrr	a0, vlenb
	li	a1, 689
	mul	a0, a0, a1
	add	a0, sp, a0
	addi	a0, a0, 208
	vl8r.v	v0, (a0)                        # Unknown-size Folded Reload
	vslideup.vx	v24, v0, s3
	li	t5, 58
	vsetvli	zero, t5, e32, m8, tu, ma
	csrr	a0, vlenb
	li	a1, 705
	mul	a0, a0, a1
	add	a0, sp, a0
	addi	a0, a0, 208
	vl8r.v	v0, (a0)                        # Unknown-size Folded Reload
	vslideup.vx	v24, v0, s8
	li	s5, 59
	vsetvli	zero, s5, e32, m8, tu, ma
	li	a0, 59
	csrr	a1, vlenb
	li	s4, 721
	mul	a1, a1, s4
	add	a1, sp, a1
	addi	a1, a1, 208
	vl8r.v	v0, (a1)                        # Unknown-size Folded Reload
	vslideup.vx	v24, v0, t5
	li	s5, 60
	vsetvli	zero, s5, e32, m8, tu, ma
	li	a1, 60
	csrr	s4, vlenb
	li	s5, 737
	mul	s4, s4, s5
	add	s4, sp, s4
	addi	s4, s4, 208
	vl8r.v	v0, (s4)                        # Unknown-size Folded Reload
	vslideup.vx	v24, v0, a0
	li	s5, 61
	vsetvli	zero, s5, e32, m8, tu, ma
	li	a0, 61
	csrr	s4, vlenb
	li	s5, 753
	mul	s4, s4, s5
	add	s4, sp, s4
	addi	s4, s4, 208
	vl8r.v	v0, (s4)                        # Unknown-size Folded Reload
	vslideup.vx	v24, v0, a1
	li	s5, 62
	vsetvli	zero, s5, e32, m8, tu, ma
	li	a1, 62
	csrr	s4, vlenb
	li	s5, 769
	mul	s4, s4, s5
	add	s4, sp, s4
	addi	s4, s4, 208
	vl8r.v	v0, (s4)                        # Unknown-size Folded Reload
	vslideup.vx	v24, v0, a0
	li	s5, 63
	vsetvli	zero, s5, e32, m8, tu, ma
	li	a0, 63
	csrr	s5, vlenb
	li	s4, 785
	mul	s5, s5, s4
	ld	s4, 8(sp)
	add	s5, sp, s5
	addi	s5, s5, 208
	vl8r.v	v0, (s5)                        # Unknown-size Folded Reload
	vslideup.vx	v24, v0, a1
	vsetvli	zero, s4, e32, m8, ta, ma
	csrr	a1, vlenb
	li	s4, 801
	mul	a1, a1, s4
	add	a1, sp, a1
	addi	a1, a1, 208
	vl8r.v	v0, (a1)                        # Unknown-size Folded Reload
	vslideup.vx	v24, v0, a0
	ld	s4, 192(sp)                     # 8-byte Folded Reload
	ld	s5, 96(sp)                      # 8-byte Folded Reload
	add	s4, s5, s4
	slli	s4, s4, 2
	ld	s5, 56(sp)                      # 8-byte Folded Reload
	add	s4, s5, s4
	vmv1r.v	v0, v8
	vse32.v	v24, (s4), v0.t
	vsetivli	zero, 2, e32, m8, tu, ma
	csrr	a0, vlenb
	li	a1, 265
	mul	a0, a0, a1
	add	a0, sp, a0
	addi	a0, a0, 208
	vl8r.v	v24, (a0)                       # Unknown-size Folded Reload
	csrr	a0, vlenb
	li	a1, 105
	mul	a0, a0, a1
	add	a0, sp, a0
	addi	a0, a0, 208
	vl8r.v	v16, (a0)                       # Unknown-size Folded Reload
	vslideup.vi	v16, v24, 1
	vsetivli	zero, 3, e32, m8, tu, ma
	csrr	a0, vlenb
	li	a1, 281
	mul	a0, a0, a1
	add	a0, sp, a0
	addi	a0, a0, 208
	vl8r.v	v24, (a0)                       # Unknown-size Folded Reload
	vslideup.vi	v16, v24, 2
	vsetivli	zero, 4, e32, m8, tu, ma
	csrr	a0, vlenb
	li	a1, 297
	mul	a0, a0, a1
	add	a0, sp, a0
	addi	a0, a0, 208
	vl8r.v	v24, (a0)                       # Unknown-size Folded Reload
	vslideup.vi	v16, v24, 3
	vsetivli	zero, 5, e32, m8, tu, ma
	csrr	a0, vlenb
	li	a1, 305
	mul	a0, a0, a1
	add	a0, sp, a0
	addi	a0, a0, 208
	vl8r.v	v24, (a0)                       # Unknown-size Folded Reload
	vslideup.vi	v16, v24, 4
	vsetivli	zero, 6, e32, m8, tu, ma
	csrr	a0, vlenb
	li	a1, 321
	mul	a0, a0, a1
	add	a0, sp, a0
	addi	a0, a0, 208
	vl8r.v	v24, (a0)                       # Unknown-size Folded Reload
	vslideup.vi	v16, v24, 5
	vsetivli	zero, 7, e32, m8, tu, ma
	csrr	a0, vlenb
	li	a1, 337
	mul	a0, a0, a1
	add	a0, sp, a0
	addi	a0, a0, 208
	vl8r.v	v24, (a0)                       # Unknown-size Folded Reload
	vslideup.vi	v16, v24, 6
	vsetivli	zero, 8, e32, m8, tu, ma
	csrr	a0, vlenb
	li	a1, 353
	mul	a0, a0, a1
	add	a0, sp, a0
	addi	a0, a0, 208
	vl8r.v	v24, (a0)                       # Unknown-size Folded Reload
	vslideup.vi	v16, v24, 7
	vsetivli	zero, 9, e32, m8, tu, ma
	csrr	a0, vlenb
	li	a1, 377
	mul	a0, a0, a1
	add	a0, sp, a0
	addi	a0, a0, 208
	vl8r.v	v24, (a0)                       # Unknown-size Folded Reload
	vslideup.vi	v16, v24, 8
	vsetivli	zero, 10, e32, m8, tu, ma
	csrr	a0, vlenb
	li	a1, 393
	mul	a0, a0, a1
	add	a0, sp, a0
	addi	a0, a0, 208
	vl8r.v	v24, (a0)                       # Unknown-size Folded Reload
	vslideup.vi	v16, v24, 9
	vsetivli	zero, 11, e32, m8, tu, ma
	csrr	a0, vlenb
	li	a1, 409
	mul	a0, a0, a1
	add	a0, sp, a0
	addi	a0, a0, 208
	vl8r.v	v24, (a0)                       # Unknown-size Folded Reload
	vslideup.vi	v16, v24, 10
	vsetivli	zero, 12, e32, m8, tu, ma
	csrr	a0, vlenb
	li	a1, 425
	mul	a0, a0, a1
	add	a0, sp, a0
	addi	a0, a0, 208
	vl8r.v	v24, (a0)                       # Unknown-size Folded Reload
	vslideup.vi	v16, v24, 11
	vsetivli	zero, 13, e32, m8, tu, ma
	csrr	a0, vlenb
	li	a1, 441
	mul	a0, a0, a1
	add	a0, sp, a0
	addi	a0, a0, 208
	vl8r.v	v24, (a0)                       # Unknown-size Folded Reload
	vslideup.vi	v16, v24, 12
	vsetivli	zero, 14, e32, m8, tu, ma
	csrr	a0, vlenb
	li	a1, 457
	mul	a0, a0, a1
	add	a0, sp, a0
	addi	a0, a0, 208
	vl8r.v	v24, (a0)                       # Unknown-size Folded Reload
	vslideup.vi	v16, v24, 13
	vsetivli	zero, 15, e32, m8, tu, ma
	csrr	a0, vlenb
	li	a1, 473
	mul	a0, a0, a1
	add	a0, sp, a0
	addi	a0, a0, 208
	vl8r.v	v24, (a0)                       # Unknown-size Folded Reload
	vslideup.vi	v16, v24, 14
	vsetivli	zero, 16, e32, m8, tu, ma
	csrr	a0, vlenb
	li	a1, 489
	mul	a0, a0, a1
	add	a0, sp, a0
	addi	a0, a0, 208
	vl8r.v	v24, (a0)                       # Unknown-size Folded Reload
	vslideup.vi	v16, v24, 15
	vsetivli	zero, 17, e32, m8, tu, ma
	csrr	a0, vlenb
	li	a1, 505
	mul	a0, a0, a1
	add	a0, sp, a0
	addi	a0, a0, 208
	vl8r.v	v24, (a0)                       # Unknown-size Folded Reload
	vslideup.vi	v16, v24, 16
	vsetivli	zero, 18, e32, m8, tu, ma
	csrr	a0, vlenb
	li	a1, 521
	mul	a0, a0, a1
	add	a0, sp, a0
	addi	a0, a0, 208
	vl8r.v	v24, (a0)                       # Unknown-size Folded Reload
	vslideup.vi	v16, v24, 17
	vsetivli	zero, 19, e32, m8, tu, ma
	csrr	a0, vlenb
	li	a1, 537
	mul	a0, a0, a1
	add	a0, sp, a0
	addi	a0, a0, 208
	vl8r.v	v24, (a0)                       # Unknown-size Folded Reload
	vslideup.vi	v16, v24, 18
	vsetivli	zero, 20, e32, m8, tu, ma
	csrr	a0, vlenb
	li	a1, 553
	mul	a0, a0, a1
	add	a0, sp, a0
	addi	a0, a0, 208
	vl8r.v	v24, (a0)                       # Unknown-size Folded Reload
	vslideup.vi	v16, v24, 19
	vsetivli	zero, 21, e32, m8, tu, ma
	csrr	a0, vlenb
	li	a1, 569
	mul	a0, a0, a1
	add	a0, sp, a0
	addi	a0, a0, 208
	vl8r.v	v24, (a0)                       # Unknown-size Folded Reload
	vslideup.vi	v16, v24, 20
	vsetivli	zero, 22, e32, m8, tu, ma
	csrr	a0, vlenb
	li	a1, 585
	mul	a0, a0, a1
	add	a0, sp, a0
	addi	a0, a0, 208
	vl8r.v	v24, (a0)                       # Unknown-size Folded Reload
	vslideup.vi	v16, v24, 21
	vsetivli	zero, 23, e32, m8, tu, ma
	csrr	a0, vlenb
	li	a1, 601
	mul	a0, a0, a1
	add	a0, sp, a0
	addi	a0, a0, 208
	vl8r.v	v24, (a0)                       # Unknown-size Folded Reload
	vslideup.vi	v16, v24, 22
	vsetivli	zero, 24, e32, m8, tu, ma
	csrr	a0, vlenb
	li	a1, 617
	mul	a0, a0, a1
	add	a0, sp, a0
	addi	a0, a0, 208
	vl8r.v	v24, (a0)                       # Unknown-size Folded Reload
	vslideup.vi	v16, v24, 23
	vsetivli	zero, 25, e32, m8, tu, ma
	csrr	a0, vlenb
	li	a1, 633
	mul	a0, a0, a1
	add	a0, sp, a0
	addi	a0, a0, 208
	vl8r.v	v24, (a0)                       # Unknown-size Folded Reload
	vslideup.vi	v16, v24, 24
	vsetivli	zero, 26, e32, m8, tu, ma
	csrr	a0, vlenb
	li	a1, 649
	mul	a0, a0, a1
	add	a0, sp, a0
	addi	a0, a0, 208
	vl8r.v	v24, (a0)                       # Unknown-size Folded Reload
	vslideup.vi	v16, v24, 25
	vsetivli	zero, 27, e32, m8, tu, ma
	csrr	a0, vlenb
	li	a1, 665
	mul	a0, a0, a1
	add	a0, sp, a0
	addi	a0, a0, 208
	vl8r.v	v24, (a0)                       # Unknown-size Folded Reload
	vslideup.vi	v16, v24, 26
	vsetivli	zero, 28, e32, m8, tu, ma
	csrr	a0, vlenb
	li	a1, 681
	mul	a0, a0, a1
	add	a0, sp, a0
	addi	a0, a0, 208
	vl8r.v	v24, (a0)                       # Unknown-size Folded Reload
	vslideup.vi	v16, v24, 27
	vsetivli	zero, 29, e32, m8, tu, ma
	csrr	a0, vlenb
	li	a1, 697
	mul	a0, a0, a1
	add	a0, sp, a0
	addi	a0, a0, 208
	vl8r.v	v24, (a0)                       # Unknown-size Folded Reload
	vslideup.vi	v16, v24, 28
	vsetivli	zero, 30, e32, m8, tu, ma
	csrr	a0, vlenb
	li	a1, 713
	mul	a0, a0, a1
	add	a0, sp, a0
	addi	a0, a0, 208
	vl8r.v	v24, (a0)                       # Unknown-size Folded Reload
	vslideup.vi	v16, v24, 29
	vsetivli	zero, 31, e32, m8, tu, ma
	csrr	a0, vlenb
	li	a1, 729
	mul	a0, a0, a1
	add	a0, sp, a0
	addi	a0, a0, 208
	vl8r.v	v24, (a0)                       # Unknown-size Folded Reload
	vslideup.vi	v16, v24, 30
	li	s5, 32
	vsetvli	zero, s5, e32, m8, tu, ma
	csrr	a0, vlenb
	li	a1, 745
	mul	a0, a0, a1
	add	a0, sp, a0
	addi	a0, a0, 208
	vl8r.v	v24, (a0)                       # Unknown-size Folded Reload
	vslideup.vi	v16, v24, 31
	vsetvli	zero, s6, e32, m8, tu, ma
	csrr	a0, vlenb
	li	a1, 761
	mul	a0, a0, a1
	add	a0, sp, a0
	addi	a0, a0, 208
	vl8r.v	v24, (a0)                       # Unknown-size Folded Reload
	vslideup.vx	v16, v24, s5
	vsetvli	zero, s7, e32, m8, tu, ma
	csrr	a0, vlenb
	li	a1, 777
	mul	a0, a0, a1
	add	a0, sp, a0
	addi	a0, a0, 208
	vl8r.v	v24, (a0)                       # Unknown-size Folded Reload
	vslideup.vx	v16, v24, s6
	vsetvli	zero, s9, e32, m8, tu, ma
	csrr	a0, vlenb
	li	a1, 793
	mul	a0, a0, a1
	add	a0, sp, a0
	addi	a0, a0, 208
	vl8r.v	v24, (a0)                       # Unknown-size Folded Reload
	vslideup.vx	v16, v24, s7
	vsetvli	zero, t2, e32, m8, tu, ma
	csrr	a0, vlenb
	li	a1, 809
	mul	a0, a0, a1
	add	a0, sp, a0
	addi	a0, a0, 208
	vl8r.v	v24, (a0)                       # Unknown-size Folded Reload
	vslideup.vx	v16, v24, s9
	vsetvli	zero, t3, e32, m8, tu, ma
	csrr	a0, vlenb
	li	a1, 817
	mul	a0, a0, a1
	add	a0, sp, a0
	addi	a0, a0, 208
	vl8r.v	v24, (a0)                       # Unknown-size Folded Reload
	vslideup.vx	v16, v24, t2
	vsetvli	zero, t4, e32, m8, tu, ma
	csrr	a0, vlenb
	li	a1, 825
	mul	a0, a0, a1
	add	a0, sp, a0
	addi	a0, a0, 208
	vl8r.v	v24, (a0)                       # Unknown-size Folded Reload
	vslideup.vx	v16, v24, t3
	vsetvli	zero, a5, e32, m8, tu, ma
	csrr	a0, vlenb
	li	a1, 833
	mul	a0, a0, a1
	add	a0, sp, a0
	addi	a0, a0, 208
	vl8r.v	v24, (a0)                       # Unknown-size Folded Reload
	vslideup.vx	v16, v24, t4
	vsetvli	zero, a3, e32, m8, tu, ma
	csrr	a0, vlenb
	li	a1, 841
	mul	a0, a0, a1
	add	a0, sp, a0
	addi	a0, a0, 208
	vl8r.v	v24, (a0)                       # Unknown-size Folded Reload
	vslideup.vx	v16, v24, a5
	vsetvli	zero, t0, e32, m8, tu, ma
	csrr	a0, vlenb
	li	a1, 849
	mul	a0, a0, a1
	add	a0, sp, a0
	addi	a0, a0, 208
	vl8r.v	v24, (a0)                       # Unknown-size Folded Reload
	vslideup.vx	v16, v24, a3
	vsetvli	zero, t1, e32, m8, tu, ma
	csrr	a0, vlenb
	li	a1, 857
	mul	a0, a0, a1
	add	a0, sp, a0
	addi	a0, a0, 208
	vl8r.v	v24, (a0)                       # Unknown-size Folded Reload
	vslideup.vx	v16, v24, t0
	vsetvli	zero, a4, e32, m8, tu, ma
	csrr	a0, vlenb
	li	a1, 865
	mul	a0, a0, a1
	add	a0, sp, a0
	addi	a0, a0, 208
	vl8r.v	v24, (a0)                       # Unknown-size Folded Reload
	vslideup.vx	v16, v24, t1
	li	a0, 44
	vsetvli	zero, a0, e32, m8, tu, ma
	csrr	a1, vlenb
	li	a3, 873
	mul	a1, a1, a3
	add	a1, sp, a1
	addi	a1, a1, 208
	vl8r.v	v24, (a1)                       # Unknown-size Folded Reload
	vslideup.vx	v16, v24, a4
	vsetvli	zero, s10, e32, m8, tu, ma
	csrr	a1, vlenb
	li	a3, 881
	mul	a1, a1, a3
	add	a1, sp, a1
	addi	a1, a1, 208
	vl8r.v	v24, (a1)                       # Unknown-size Folded Reload
	vslideup.vx	v16, v24, a0
	vsetvli	zero, s11, e32, m8, tu, ma
	csrr	a0, vlenb
	li	a1, 889
	mul	a0, a0, a1
	add	a0, sp, a0
	addi	a0, a0, 208
	vl8r.v	v24, (a0)                       # Unknown-size Folded Reload
	vslideup.vx	v16, v24, s10
	vsetvli	zero, ra, e32, m8, tu, ma
	csrr	a0, vlenb
	li	a1, 905
	mul	a0, a0, a1
	add	a0, sp, a0
	addi	a0, a0, 208
	vl8r.v	v24, (a0)                       # Unknown-size Folded Reload
	vslideup.vx	v16, v24, s11
	vsetvli	zero, a2, e32, m8, tu, ma
	csrr	a0, vlenb
	li	a1, 921
	mul	a0, a0, a1
	add	a0, sp, a0
	addi	a0, a0, 208
	vl8r.v	v24, (a0)                       # Unknown-size Folded Reload
	vslideup.vx	v16, v24, ra
	vsetvli	zero, a7, e32, m8, tu, ma
	csrr	a0, vlenb
	li	a1, 937
	mul	a0, a0, a1
	add	a0, sp, a0
	addi	a0, a0, 208
	vl8r.v	v24, (a0)                       # Unknown-size Folded Reload
	vslideup.vx	v16, v24, a2
	vsetvli	zero, a6, e32, m8, tu, ma
	csrr	a0, vlenb
	li	a1, 953
	mul	a0, a0, a1
	add	a0, sp, a0
	addi	a0, a0, 208
	vl8r.v	v24, (a0)                       # Unknown-size Folded Reload
	vslideup.vx	v16, v24, a7
	li	a0, 51
	vsetvli	zero, a0, e32, m8, tu, ma
	csrr	a1, vlenb
	li	a2, 969
	mul	a1, a1, a2
	add	a1, sp, a1
	addi	a1, a1, 208
	vl8r.v	v24, (a1)                       # Unknown-size Folded Reload
	vslideup.vx	v16, v24, a6
	vsetvli	zero, t6, e32, m8, tu, ma
	csrr	a1, vlenb
	li	a2, 985
	mul	a1, a1, a2
	add	a1, sp, a1
	addi	a1, a1, 208
	vl8r.v	v24, (a1)                       # Unknown-size Folded Reload
	vslideup.vx	v16, v24, a0
	vsetvli	zero, s0, e32, m8, tu, ma
	csrr	a0, vlenb
	li	a1, 1001
	mul	a0, a0, a1
	add	a0, sp, a0
	addi	a0, a0, 208
	vl8r.v	v24, (a0)                       # Unknown-size Folded Reload
	vslideup.vx	v16, v24, t6
	vsetvli	zero, s1, e32, m8, tu, ma
	csrr	a0, vlenb
	li	a1, 1009
	mul	a0, a0, a1
	add	a0, sp, a0
	addi	a0, a0, 208
	vl8r.v	v24, (a0)                       # Unknown-size Folded Reload
	vslideup.vx	v16, v24, s0
	vsetvli	zero, s2, e32, m8, tu, ma
	csrr	a0, vlenb
	slli	a1, a0, 10
	add	a0, a1, a0
	add	a0, sp, a0
	addi	a0, a0, 208
	vl8r.v	v24, (a0)                       # Unknown-size Folded Reload
	vslideup.vx	v16, v24, s1
	vsetvli	zero, s3, e32, m8, tu, ma
	csrr	a0, vlenb
	li	a1, 1041
	mul	a0, a0, a1
	add	a0, sp, a0
	addi	a0, a0, 208
	vl8r.v	v24, (a0)                       # Unknown-size Folded Reload
	vslideup.vx	v16, v24, s2
	vsetvli	zero, s8, e32, m8, tu, ma
	csrr	a0, vlenb
	li	a1, 1057
	mul	a0, a0, a1
	add	a0, sp, a0
	addi	a0, a0, 208
	vl8r.v	v24, (a0)                       # Unknown-size Folded Reload
	vslideup.vx	v16, v24, s3
	vsetvli	zero, t5, e32, m8, tu, ma
	csrr	a0, vlenb
	li	a1, 1073
	mul	a0, a0, a1
	add	a0, sp, a0
	addi	a0, a0, 208
	vl8r.v	v24, (a0)                       # Unknown-size Folded Reload
	vslideup.vx	v16, v24, s8
	li	a0, 59
	vsetvli	zero, a0, e32, m8, tu, ma
	csrr	a1, vlenb
	li	a2, 1089
	mul	a1, a1, a2
	add	a1, sp, a1
	addi	a1, a1, 208
	vl8r.v	v24, (a1)                       # Unknown-size Folded Reload
	vslideup.vx	v16, v24, t5
	li	a1, 60
	vsetvli	zero, a1, e32, m8, tu, ma
	csrr	a2, vlenb
	li	a3, 1105
	mul	a2, a2, a3
	add	a2, sp, a2
	addi	a2, a2, 208
	vl8r.v	v24, (a2)                       # Unknown-size Folded Reload
	vslideup.vx	v16, v24, a0
	li	a0, 61
	vsetvli	zero, a0, e32, m8, tu, ma
	csrr	a2, vlenb
	li	a3, 1121
	mul	a2, a2, a3
	add	a2, sp, a2
	addi	a2, a2, 208
	vl8r.v	v24, (a2)                       # Unknown-size Folded Reload
	vslideup.vx	v16, v24, a1
	li	a1, 62
	vsetvli	zero, a1, e32, m8, tu, ma
	csrr	a2, vlenb
	li	a3, 1137
	mul	a2, a2, a3
	add	a2, sp, a2
	addi	a2, a2, 208
	vl8r.v	v24, (a2)                       # Unknown-size Folded Reload
	vslideup.vx	v16, v24, a0
	li	a2, 63
	vsetvli	zero, a2, e32, m8, tu, ma
	csrr	a0, vlenb
	li	a3, 1153
	mul	a0, a0, a3
	add	a0, sp, a0
	addi	a0, a0, 208
	vl8r.v	v24, (a0)                       # Unknown-size Folded Reload
	vslideup.vx	v16, v24, a1
	li	a0, 64
	vsetvli	zero, a0, e32, m8, ta, ma
	csrr	a1, vlenb
	li	a3, 1169
	mul	a1, a1, a3
	add	a1, sp, a1
	addi	a1, a1, 208
	vl8r.v	v24, (a1)                       # Unknown-size Folded Reload
	vslideup.vx	v16, v24, a2
	vsetivli	zero, 8, e8, mf2, ta, ma
	addi	s5, s4, 256
	vslidedown.vi	v0, v8, 8
	vsetvli	zero, a0, e32, m8, ta, ma
	li	a0, 64
	vse32.v	v16, (s5), v0.t
	vsetivli	zero, 2, e32, m8, tu, ma
	csrr	a1, vlenb
	li	a2, 897
	mul	a1, a1, a2
	add	a1, sp, a1
	addi	a1, a1, 208
	vl8r.v	v24, (a1)                       # Unknown-size Folded Reload
	csrr	a1, vlenb
	li	a2, 1289
	mul	a1, a1, a2
	add	a1, sp, a1
	addi	a1, a1, 208
	vl8r.v	v16, (a1)                       # Unknown-size Folded Reload
	vslideup.vi	v16, v24, 1
	vsetivli	zero, 3, e32, m8, tu, ma
	csrr	a1, vlenb
	li	a2, 913
	mul	a1, a1, a2
	add	a1, sp, a1
	addi	a1, a1, 208
	vl8r.v	v24, (a1)                       # Unknown-size Folded Reload
	vslideup.vi	v16, v24, 2
	vsetivli	zero, 4, e32, m8, tu, ma
	csrr	a1, vlenb
	li	a2, 929
	mul	a1, a1, a2
	add	a1, sp, a1
	addi	a1, a1, 208
	vl8r.v	v24, (a1)                       # Unknown-size Folded Reload
	vslideup.vi	v16, v24, 3
	vsetivli	zero, 5, e32, m8, tu, ma
	csrr	a1, vlenb
	li	a2, 945
	mul	a1, a1, a2
	add	a1, sp, a1
	addi	a1, a1, 208
	vl8r.v	v24, (a1)                       # Unknown-size Folded Reload
	vslideup.vi	v16, v24, 4
	vsetivli	zero, 6, e32, m8, tu, ma
	csrr	a1, vlenb
	li	a2, 961
	mul	a1, a1, a2
	add	a1, sp, a1
	addi	a1, a1, 208
	vl8r.v	v24, (a1)                       # Unknown-size Folded Reload
	vslideup.vi	v16, v24, 5
	vsetivli	zero, 7, e32, m8, tu, ma
	csrr	a1, vlenb
	li	a2, 977
	mul	a1, a1, a2
	add	a1, sp, a1
	addi	a1, a1, 208
	vl8r.v	v24, (a1)                       # Unknown-size Folded Reload
	vslideup.vi	v16, v24, 6
	vsetivli	zero, 8, e32, m8, tu, ma
	csrr	a1, vlenb
	li	a2, 993
	mul	a1, a1, a2
	add	a1, sp, a1
	addi	a1, a1, 208
	vl8r.v	v24, (a1)                       # Unknown-size Folded Reload
	vslideup.vi	v16, v24, 7
	vsetivli	zero, 9, e32, m8, tu, ma
	csrr	a1, vlenb
	li	a2, 1017
	mul	a1, a1, a2
	add	a1, sp, a1
	addi	a1, a1, 208
	vl8r.v	v24, (a1)                       # Unknown-size Folded Reload
	vslideup.vi	v16, v24, 8
	vsetivli	zero, 10, e32, m8, tu, ma
	csrr	a1, vlenb
	li	a2, 1033
	mul	a1, a1, a2
	add	a1, sp, a1
	addi	a1, a1, 208
	vl8r.v	v24, (a1)                       # Unknown-size Folded Reload
	vslideup.vi	v16, v24, 9
	vsetivli	zero, 11, e32, m8, tu, ma
	csrr	a1, vlenb
	li	a2, 1049
	mul	a1, a1, a2
	add	a1, sp, a1
	addi	a1, a1, 208
	vl8r.v	v24, (a1)                       # Unknown-size Folded Reload
	vslideup.vi	v16, v24, 10
	vsetivli	zero, 12, e32, m8, tu, ma
	csrr	a1, vlenb
	li	a2, 1065
	mul	a1, a1, a2
	add	a1, sp, a1
	addi	a1, a1, 208
	vl8r.v	v24, (a1)                       # Unknown-size Folded Reload
	vslideup.vi	v16, v24, 11
	vsetivli	zero, 13, e32, m8, tu, ma
	csrr	a1, vlenb
	li	a2, 1081
	mul	a1, a1, a2
	add	a1, sp, a1
	addi	a1, a1, 208
